
rtarget:     file format elf64-x86-64


Disassembly of section .init:

0000000000401000 <_init>:
  401000:	f3 0f 1e fa          	endbr64 
  401004:	48 83 ec 08          	sub    $0x8,%rsp
  401008:	48 8b 05 e9 5f 00 00 	mov    0x5fe9(%rip),%rax        # 406ff8 <__gmon_start__@Base>
  40100f:	48 85 c0             	test   %rax,%rax
  401012:	74 02                	je     401016 <_init+0x16>
  401014:	ff d0                	call   *%rax
  401016:	48 83 c4 08          	add    $0x8,%rsp
  40101a:	c3                   	ret    

Disassembly of section .plt:

0000000000401020 <strcasecmp@plt-0x10>:
  401020:	ff 35 e2 5f 00 00    	push   0x5fe2(%rip)        # 407008 <_GLOBAL_OFFSET_TABLE_+0x8>
  401026:	ff 25 e4 5f 00 00    	jmp    *0x5fe4(%rip)        # 407010 <_GLOBAL_OFFSET_TABLE_+0x10>
  40102c:	0f 1f 40 00          	nopl   0x0(%rax)

0000000000401030 <strcasecmp@plt>:
  401030:	ff 25 e2 5f 00 00    	jmp    *0x5fe2(%rip)        # 407018 <strcasecmp@GLIBC_2.2.5>
  401036:	68 00 00 00 00       	push   $0x0
  40103b:	e9 e0 ff ff ff       	jmp    401020 <_init+0x20>

0000000000401040 <__errno_location@plt>:
  401040:	ff 25 da 5f 00 00    	jmp    *0x5fda(%rip)        # 407020 <__errno_location@GLIBC_2.2.5>
  401046:	68 01 00 00 00       	push   $0x1
  40104b:	e9 d0 ff ff ff       	jmp    401020 <_init+0x20>

0000000000401050 <srandom@plt>:
  401050:	ff 25 d2 5f 00 00    	jmp    *0x5fd2(%rip)        # 407028 <srandom@GLIBC_2.2.5>
  401056:	68 02 00 00 00       	push   $0x2
  40105b:	e9 c0 ff ff ff       	jmp    401020 <_init+0x20>

0000000000401060 <strncmp@plt>:
  401060:	ff 25 ca 5f 00 00    	jmp    *0x5fca(%rip)        # 407030 <strncmp@GLIBC_2.2.5>
  401066:	68 03 00 00 00       	push   $0x3
  40106b:	e9 b0 ff ff ff       	jmp    401020 <_init+0x20>

0000000000401070 <strcpy@plt>:
  401070:	ff 25 c2 5f 00 00    	jmp    *0x5fc2(%rip)        # 407038 <strcpy@GLIBC_2.2.5>
  401076:	68 04 00 00 00       	push   $0x4
  40107b:	e9 a0 ff ff ff       	jmp    401020 <_init+0x20>

0000000000401080 <puts@plt>:
  401080:	ff 25 ba 5f 00 00    	jmp    *0x5fba(%rip)        # 407040 <puts@GLIBC_2.2.5>
  401086:	68 05 00 00 00       	push   $0x5
  40108b:	e9 90 ff ff ff       	jmp    401020 <_init+0x20>

0000000000401090 <write@plt>:
  401090:	ff 25 b2 5f 00 00    	jmp    *0x5fb2(%rip)        # 407048 <write@GLIBC_2.2.5>
  401096:	68 06 00 00 00       	push   $0x6
  40109b:	e9 80 ff ff ff       	jmp    401020 <_init+0x20>

00000000004010a0 <strlen@plt>:
  4010a0:	ff 25 aa 5f 00 00    	jmp    *0x5faa(%rip)        # 407050 <strlen@GLIBC_2.2.5>
  4010a6:	68 07 00 00 00       	push   $0x7
  4010ab:	e9 70 ff ff ff       	jmp    401020 <_init+0x20>

00000000004010b0 <mmap@plt>:
  4010b0:	ff 25 a2 5f 00 00    	jmp    *0x5fa2(%rip)        # 407058 <mmap@GLIBC_2.2.5>
  4010b6:	68 08 00 00 00       	push   $0x8
  4010bb:	e9 60 ff ff ff       	jmp    401020 <_init+0x20>

00000000004010c0 <printf@plt>:
  4010c0:	ff 25 9a 5f 00 00    	jmp    *0x5f9a(%rip)        # 407060 <printf@GLIBC_2.2.5>
  4010c6:	68 09 00 00 00       	push   $0x9
  4010cb:	e9 50 ff ff ff       	jmp    401020 <_init+0x20>

00000000004010d0 <memset@plt>:
  4010d0:	ff 25 92 5f 00 00    	jmp    *0x5f92(%rip)        # 407068 <memset@GLIBC_2.2.5>
  4010d6:	68 0a 00 00 00       	push   $0xa
  4010db:	e9 40 ff ff ff       	jmp    401020 <_init+0x20>

00000000004010e0 <alarm@plt>:
  4010e0:	ff 25 8a 5f 00 00    	jmp    *0x5f8a(%rip)        # 407070 <alarm@GLIBC_2.2.5>
  4010e6:	68 0b 00 00 00       	push   $0xb
  4010eb:	e9 30 ff ff ff       	jmp    401020 <_init+0x20>

00000000004010f0 <close@plt>:
  4010f0:	ff 25 82 5f 00 00    	jmp    *0x5f82(%rip)        # 407078 <close@GLIBC_2.2.5>
  4010f6:	68 0c 00 00 00       	push   $0xc
  4010fb:	e9 20 ff ff ff       	jmp    401020 <_init+0x20>

0000000000401100 <read@plt>:
  401100:	ff 25 7a 5f 00 00    	jmp    *0x5f7a(%rip)        # 407080 <read@GLIBC_2.2.5>
  401106:	68 0d 00 00 00       	push   $0xd
  40110b:	e9 10 ff ff ff       	jmp    401020 <_init+0x20>

0000000000401110 <strcmp@plt>:
  401110:	ff 25 72 5f 00 00    	jmp    *0x5f72(%rip)        # 407088 <strcmp@GLIBC_2.2.5>
  401116:	68 0e 00 00 00       	push   $0xe
  40111b:	e9 00 ff ff ff       	jmp    401020 <_init+0x20>

0000000000401120 <signal@plt>:
  401120:	ff 25 6a 5f 00 00    	jmp    *0x5f6a(%rip)        # 407090 <signal@GLIBC_2.2.5>
  401126:	68 0f 00 00 00       	push   $0xf
  40112b:	e9 f0 fe ff ff       	jmp    401020 <_init+0x20>

0000000000401130 <gethostbyname@plt>:
  401130:	ff 25 62 5f 00 00    	jmp    *0x5f62(%rip)        # 407098 <gethostbyname@GLIBC_2.2.5>
  401136:	68 10 00 00 00       	push   $0x10
  40113b:	e9 e0 fe ff ff       	jmp    401020 <_init+0x20>

0000000000401140 <fprintf@plt>:
  401140:	ff 25 5a 5f 00 00    	jmp    *0x5f5a(%rip)        # 4070a0 <fprintf@GLIBC_2.2.5>
  401146:	68 11 00 00 00       	push   $0x11
  40114b:	e9 d0 fe ff ff       	jmp    401020 <_init+0x20>

0000000000401150 <strtol@plt>:
  401150:	ff 25 52 5f 00 00    	jmp    *0x5f52(%rip)        # 4070a8 <strtol@GLIBC_2.2.5>
  401156:	68 12 00 00 00       	push   $0x12
  40115b:	e9 c0 fe ff ff       	jmp    401020 <_init+0x20>

0000000000401160 <memcpy@plt>:
  401160:	ff 25 4a 5f 00 00    	jmp    *0x5f4a(%rip)        # 4070b0 <memcpy@GLIBC_2.14>
  401166:	68 13 00 00 00       	push   $0x13
  40116b:	e9 b0 fe ff ff       	jmp    401020 <_init+0x20>

0000000000401170 <time@plt>:
  401170:	ff 25 42 5f 00 00    	jmp    *0x5f42(%rip)        # 4070b8 <time@GLIBC_2.2.5>
  401176:	68 14 00 00 00       	push   $0x14
  40117b:	e9 a0 fe ff ff       	jmp    401020 <_init+0x20>

0000000000401180 <random@plt>:
  401180:	ff 25 3a 5f 00 00    	jmp    *0x5f3a(%rip)        # 4070c0 <random@GLIBC_2.2.5>
  401186:	68 15 00 00 00       	push   $0x15
  40118b:	e9 90 fe ff ff       	jmp    401020 <_init+0x20>

0000000000401190 <__isoc99_sscanf@plt>:
  401190:	ff 25 32 5f 00 00    	jmp    *0x5f32(%rip)        # 4070c8 <__isoc99_sscanf@GLIBC_2.7>
  401196:	68 16 00 00 00       	push   $0x16
  40119b:	e9 80 fe ff ff       	jmp    401020 <_init+0x20>

00000000004011a0 <munmap@plt>:
  4011a0:	ff 25 2a 5f 00 00    	jmp    *0x5f2a(%rip)        # 4070d0 <munmap@GLIBC_2.2.5>
  4011a6:	68 17 00 00 00       	push   $0x17
  4011ab:	e9 70 fe ff ff       	jmp    401020 <_init+0x20>

00000000004011b0 <memmove@plt>:
  4011b0:	ff 25 22 5f 00 00    	jmp    *0x5f22(%rip)        # 4070d8 <memmove@GLIBC_2.2.5>
  4011b6:	68 18 00 00 00       	push   $0x18
  4011bb:	e9 60 fe ff ff       	jmp    401020 <_init+0x20>

00000000004011c0 <fopen@plt>:
  4011c0:	ff 25 1a 5f 00 00    	jmp    *0x5f1a(%rip)        # 4070e0 <fopen@GLIBC_2.2.5>
  4011c6:	68 19 00 00 00       	push   $0x19
  4011cb:	e9 50 fe ff ff       	jmp    401020 <_init+0x20>

00000000004011d0 <getopt@plt>:
  4011d0:	ff 25 12 5f 00 00    	jmp    *0x5f12(%rip)        # 4070e8 <getopt@GLIBC_2.2.5>
  4011d6:	68 1a 00 00 00       	push   $0x1a
  4011db:	e9 40 fe ff ff       	jmp    401020 <_init+0x20>

00000000004011e0 <strtoul@plt>:
  4011e0:	ff 25 0a 5f 00 00    	jmp    *0x5f0a(%rip)        # 4070f0 <strtoul@GLIBC_2.2.5>
  4011e6:	68 1b 00 00 00       	push   $0x1b
  4011eb:	e9 30 fe ff ff       	jmp    401020 <_init+0x20>

00000000004011f0 <gethostname@plt>:
  4011f0:	ff 25 02 5f 00 00    	jmp    *0x5f02(%rip)        # 4070f8 <gethostname@GLIBC_2.2.5>
  4011f6:	68 1c 00 00 00       	push   $0x1c
  4011fb:	e9 20 fe ff ff       	jmp    401020 <_init+0x20>

0000000000401200 <sprintf@plt>:
  401200:	ff 25 fa 5e 00 00    	jmp    *0x5efa(%rip)        # 407100 <sprintf@GLIBC_2.2.5>
  401206:	68 1d 00 00 00       	push   $0x1d
  40120b:	e9 10 fe ff ff       	jmp    401020 <_init+0x20>

0000000000401210 <exit@plt>:
  401210:	ff 25 f2 5e 00 00    	jmp    *0x5ef2(%rip)        # 407108 <exit@GLIBC_2.2.5>
  401216:	68 1e 00 00 00       	push   $0x1e
  40121b:	e9 00 fe ff ff       	jmp    401020 <_init+0x20>

0000000000401220 <connect@plt>:
  401220:	ff 25 ea 5e 00 00    	jmp    *0x5eea(%rip)        # 407110 <connect@GLIBC_2.2.5>
  401226:	68 1f 00 00 00       	push   $0x1f
  40122b:	e9 f0 fd ff ff       	jmp    401020 <_init+0x20>

0000000000401230 <getc@plt>:
  401230:	ff 25 e2 5e 00 00    	jmp    *0x5ee2(%rip)        # 407118 <getc@GLIBC_2.2.5>
  401236:	68 20 00 00 00       	push   $0x20
  40123b:	e9 e0 fd ff ff       	jmp    401020 <_init+0x20>

0000000000401240 <socket@plt>:
  401240:	ff 25 da 5e 00 00    	jmp    *0x5eda(%rip)        # 407120 <socket@GLIBC_2.2.5>
  401246:	68 21 00 00 00       	push   $0x21
  40124b:	e9 d0 fd ff ff       	jmp    401020 <_init+0x20>

Disassembly of section .text:

0000000000401250 <_start>:
  401250:	f3 0f 1e fa          	endbr64 
  401254:	31 ed                	xor    %ebp,%ebp
  401256:	49 89 d1             	mov    %rdx,%r9
  401259:	5e                   	pop    %rsi
  40125a:	48 89 e2             	mov    %rsp,%rdx
  40125d:	48 83 e4 f0          	and    $0xfffffffffffffff0,%rsp
  401261:	50                   	push   %rax
  401262:	54                   	push   %rsp
  401263:	45 31 c0             	xor    %r8d,%r8d
  401266:	31 c9                	xor    %ecx,%ecx
  401268:	48 c7 c7 ff 14 40 00 	mov    $0x4014ff,%rdi
  40126f:	ff 15 7b 5d 00 00    	call   *0x5d7b(%rip)        # 406ff0 <__libc_start_main@GLIBC_2.34>
  401275:	f4                   	hlt    

0000000000401276 <.annobin_abi_note.c>:
  401276:	66 2e 0f 1f 84 00 00 	cs nopw 0x0(%rax,%rax,1)
  40127d:	00 00 00 

0000000000401280 <_dl_relocate_static_pie>:
  401280:	f3 0f 1e fa          	endbr64 
  401284:	c3                   	ret    

0000000000401285 <.annobin__dl_relocate_static_pie.end>:
  401285:	66 2e 0f 1f 84 00 00 	cs nopw 0x0(%rax,%rax,1)
  40128c:	00 00 00 
  40128f:	90                   	nop

0000000000401290 <deregister_tm_clones>:
  401290:	b8 b8 74 40 00       	mov    $0x4074b8,%eax
  401295:	48 3d b8 74 40 00    	cmp    $0x4074b8,%rax
  40129b:	74 13                	je     4012b0 <deregister_tm_clones+0x20>
  40129d:	b8 00 00 00 00       	mov    $0x0,%eax
  4012a2:	48 85 c0             	test   %rax,%rax
  4012a5:	74 09                	je     4012b0 <deregister_tm_clones+0x20>
  4012a7:	bf b8 74 40 00       	mov    $0x4074b8,%edi
  4012ac:	ff e0                	jmp    *%rax
  4012ae:	66 90                	xchg   %ax,%ax
  4012b0:	c3                   	ret    
  4012b1:	66 66 2e 0f 1f 84 00 	data16 cs nopw 0x0(%rax,%rax,1)
  4012b8:	00 00 00 00 
  4012bc:	0f 1f 40 00          	nopl   0x0(%rax)

00000000004012c0 <register_tm_clones>:
  4012c0:	be b8 74 40 00       	mov    $0x4074b8,%esi
  4012c5:	48 81 ee b8 74 40 00 	sub    $0x4074b8,%rsi
  4012cc:	48 89 f0             	mov    %rsi,%rax
  4012cf:	48 c1 ee 3f          	shr    $0x3f,%rsi
  4012d3:	48 c1 f8 03          	sar    $0x3,%rax
  4012d7:	48 01 c6             	add    %rax,%rsi
  4012da:	48 d1 fe             	sar    %rsi
  4012dd:	74 11                	je     4012f0 <register_tm_clones+0x30>
  4012df:	b8 00 00 00 00       	mov    $0x0,%eax
  4012e4:	48 85 c0             	test   %rax,%rax
  4012e7:	74 07                	je     4012f0 <register_tm_clones+0x30>
  4012e9:	bf b8 74 40 00       	mov    $0x4074b8,%edi
  4012ee:	ff e0                	jmp    *%rax
  4012f0:	c3                   	ret    
  4012f1:	66 66 2e 0f 1f 84 00 	data16 cs nopw 0x0(%rax,%rax,1)
  4012f8:	00 00 00 00 
  4012fc:	0f 1f 40 00          	nopl   0x0(%rax)

0000000000401300 <__do_global_dtors_aux>:
  401300:	f3 0f 1e fa          	endbr64 
  401304:	80 3d fd 61 00 00 00 	cmpb   $0x0,0x61fd(%rip)        # 407508 <completed.0>
  40130b:	75 13                	jne    401320 <__do_global_dtors_aux+0x20>
  40130d:	55                   	push   %rbp
  40130e:	48 89 e5             	mov    %rsp,%rbp
  401311:	e8 7a ff ff ff       	call   401290 <deregister_tm_clones>
  401316:	c6 05 eb 61 00 00 01 	movb   $0x1,0x61eb(%rip)        # 407508 <completed.0>
  40131d:	5d                   	pop    %rbp
  40131e:	c3                   	ret    
  40131f:	90                   	nop
  401320:	c3                   	ret    
  401321:	66 66 2e 0f 1f 84 00 	data16 cs nopw 0x0(%rax,%rax,1)
  401328:	00 00 00 00 
  40132c:	0f 1f 40 00          	nopl   0x0(%rax)

0000000000401330 <frame_dummy>:
  401330:	f3 0f 1e fa          	endbr64 
  401334:	eb 8a                	jmp    4012c0 <register_tm_clones>

0000000000401336 <usage>:
  401336:	48 83 ec 08          	sub    $0x8,%rsp
  40133a:	48 89 fe             	mov    %rdi,%rsi
  40133d:	83 3d 14 62 00 00 00 	cmpl   $0x0,0x6214(%rip)        # 407558 <is_checker>
  401344:	74 41                	je     401387 <usage+0x51>
  401346:	bf 10 40 40 00       	mov    $0x404010,%edi
  40134b:	b8 00 00 00 00       	mov    $0x0,%eax
  401350:	e8 6b fd ff ff       	call   4010c0 <printf@plt>
  401355:	bf 48 40 40 00       	mov    $0x404048,%edi
  40135a:	e8 21 fd ff ff       	call   401080 <puts@plt>
  40135f:	bf c0 41 40 00       	mov    $0x4041c0,%edi
  401364:	e8 17 fd ff ff       	call   401080 <puts@plt>
  401369:	bf 70 40 40 00       	mov    $0x404070,%edi
  40136e:	e8 0d fd ff ff       	call   401080 <puts@plt>
  401373:	bf da 41 40 00       	mov    $0x4041da,%edi
  401378:	e8 03 fd ff ff       	call   401080 <puts@plt>
  40137d:	bf 00 00 00 00       	mov    $0x0,%edi
  401382:	e8 89 fe ff ff       	call   401210 <exit@plt>
  401387:	bf f6 41 40 00       	mov    $0x4041f6,%edi
  40138c:	b8 00 00 00 00       	mov    $0x0,%eax
  401391:	e8 2a fd ff ff       	call   4010c0 <printf@plt>
  401396:	bf 98 40 40 00       	mov    $0x404098,%edi
  40139b:	e8 e0 fc ff ff       	call   401080 <puts@plt>
  4013a0:	bf c0 40 40 00       	mov    $0x4040c0,%edi
  4013a5:	e8 d6 fc ff ff       	call   401080 <puts@plt>
  4013aa:	bf 14 42 40 00       	mov    $0x404214,%edi
  4013af:	e8 cc fc ff ff       	call   401080 <puts@plt>
  4013b4:	eb c7                	jmp    40137d <usage+0x47>

00000000004013b6 <initialize_target>:
  4013b6:	55                   	push   %rbp
  4013b7:	53                   	push   %rbx
  4013b8:	48 81 ec 08 21 00 00 	sub    $0x2108,%rsp
  4013bf:	89 f5                	mov    %esi,%ebp
  4013c1:	89 3d 81 61 00 00    	mov    %edi,0x6181(%rip)        # 407548 <check_level>
  4013c7:	8b 3d 9b 5d 00 00    	mov    0x5d9b(%rip),%edi        # 407168 <target_id>
  4013cd:	e8 d3 1c 00 00       	call   4030a5 <gencookie>
  4013d2:	89 c7                	mov    %eax,%edi
  4013d4:	89 05 7a 61 00 00    	mov    %eax,0x617a(%rip)        # 407554 <cookie>
  4013da:	e8 c6 1c 00 00       	call   4030a5 <gencookie>
  4013df:	89 05 6b 61 00 00    	mov    %eax,0x616b(%rip)        # 407550 <authkey>
  4013e5:	8b 05 7d 5d 00 00    	mov    0x5d7d(%rip),%eax        # 407168 <target_id>
  4013eb:	8d 78 01             	lea    0x1(%rax),%edi
  4013ee:	e8 5d fc ff ff       	call   401050 <srandom@plt>
  4013f3:	e8 88 fd ff ff       	call   401180 <random@plt>
  4013f8:	89 c7                	mov    %eax,%edi
  4013fa:	e8 c2 02 00 00       	call   4016c1 <scramble>
  4013ff:	89 c3                	mov    %eax,%ebx
  401401:	85 ed                	test   %ebp,%ebp
  401403:	75 3d                	jne    401442 <initialize_target+0x8c>
  401405:	b8 00 00 00 00       	mov    $0x0,%eax
  40140a:	01 d8                	add    %ebx,%eax
  40140c:	0f b7 c0             	movzwl %ax,%eax
  40140f:	8d 04 c5 00 01 00 00 	lea    0x100(,%rax,8),%eax
  401416:	89 c0                	mov    %eax,%eax
  401418:	48 89 05 91 60 00 00 	mov    %rax,0x6091(%rip)        # 4074b0 <buf_offset>
  40141f:	c6 05 12 61 00 00 72 	movb   $0x72,0x6112(%rip)        # 407538 <target_prefix>
  401426:	83 3d 7b 60 00 00 00 	cmpl   $0x0,0x607b(%rip)        # 4074a8 <notify>
  40142d:	74 09                	je     401438 <initialize_target+0x82>
  40142f:	83 3d 22 61 00 00 00 	cmpl   $0x0,0x6122(%rip)        # 407558 <is_checker>
  401436:	74 22                	je     40145a <initialize_target+0xa4>
  401438:	48 81 c4 08 21 00 00 	add    $0x2108,%rsp
  40143f:	5b                   	pop    %rbx
  401440:	5d                   	pop    %rbp
  401441:	c3                   	ret    
  401442:	bf 00 00 00 00       	mov    $0x0,%edi
  401447:	e8 24 fd ff ff       	call   401170 <time@plt>
  40144c:	89 c7                	mov    %eax,%edi
  40144e:	e8 fd fb ff ff       	call   401050 <srandom@plt>
  401453:	e8 28 fd ff ff       	call   401180 <random@plt>
  401458:	eb b0                	jmp    40140a <initialize_target+0x54>
  40145a:	be 00 01 00 00       	mov    $0x100,%esi
  40145f:	48 89 e7             	mov    %rsp,%rdi
  401462:	e8 89 fd ff ff       	call   4011f0 <gethostname@plt>
  401467:	89 c5                	mov    %eax,%ebp
  401469:	85 c0                	test   %eax,%eax
  40146b:	75 23                	jne    401490 <initialize_target+0xda>
  40146d:	89 c3                	mov    %eax,%ebx
  40146f:	48 63 c3             	movslq %ebx,%rax
  401472:	48 8b 3c c5 80 71 40 	mov    0x407180(,%rax,8),%rdi
  401479:	00 
  40147a:	48 85 ff             	test   %rdi,%rdi
  40147d:	74 2a                	je     4014a9 <initialize_target+0xf3>
  40147f:	48 89 e6             	mov    %rsp,%rsi
  401482:	e8 a9 fb ff ff       	call   401030 <strcasecmp@plt>
  401487:	85 c0                	test   %eax,%eax
  401489:	74 19                	je     4014a4 <initialize_target+0xee>
  40148b:	83 c3 01             	add    $0x1,%ebx
  40148e:	eb df                	jmp    40146f <initialize_target+0xb9>
  401490:	bf f0 40 40 00       	mov    $0x4040f0,%edi
  401495:	e8 e6 fb ff ff       	call   401080 <puts@plt>
  40149a:	bf 08 00 00 00       	mov    $0x8,%edi
  40149f:	e8 6c fd ff ff       	call   401210 <exit@plt>
  4014a4:	bd 01 00 00 00       	mov    $0x1,%ebp
  4014a9:	85 ed                	test   %ebp,%ebp
  4014ab:	74 36                	je     4014e3 <initialize_target+0x12d>
  4014ad:	48 8d bc 24 00 01 00 	lea    0x100(%rsp),%rdi
  4014b4:	00 
  4014b5:	e8 64 19 00 00       	call   402e1e <init_driver>
  4014ba:	85 c0                	test   %eax,%eax
  4014bc:	0f 89 76 ff ff ff    	jns    401438 <initialize_target+0x82>
  4014c2:	48 8d b4 24 00 01 00 	lea    0x100(%rsp),%rsi
  4014c9:	00 
  4014ca:	bf 68 41 40 00       	mov    $0x404168,%edi
  4014cf:	b8 00 00 00 00       	mov    $0x0,%eax
  4014d4:	e8 e7 fb ff ff       	call   4010c0 <printf@plt>
  4014d9:	bf 08 00 00 00       	mov    $0x8,%edi
  4014de:	e8 2d fd ff ff       	call   401210 <exit@plt>
  4014e3:	48 89 e6             	mov    %rsp,%rsi
  4014e6:	bf 28 41 40 00       	mov    $0x404128,%edi
  4014eb:	b8 00 00 00 00       	mov    $0x0,%eax
  4014f0:	e8 cb fb ff ff       	call   4010c0 <printf@plt>
  4014f5:	bf 08 00 00 00       	mov    $0x8,%edi
  4014fa:	e8 11 fd ff ff       	call   401210 <exit@plt>

00000000004014ff <main>:
  4014ff:	41 56                	push   %r14
  401501:	41 55                	push   %r13
  401503:	41 54                	push   %r12
  401505:	55                   	push   %rbp
  401506:	53                   	push   %rbx
  401507:	89 fd                	mov    %edi,%ebp
  401509:	48 89 f3             	mov    %rsi,%rbx
  40150c:	be 9d 22 40 00       	mov    $0x40229d,%esi
  401511:	bf 0b 00 00 00       	mov    $0xb,%edi
  401516:	e8 05 fc ff ff       	call   401120 <signal@plt>
  40151b:	be 4f 22 40 00       	mov    $0x40224f,%esi
  401520:	bf 07 00 00 00       	mov    $0x7,%edi
  401525:	e8 f6 fb ff ff       	call   401120 <signal@plt>
  40152a:	be eb 22 40 00       	mov    $0x4022eb,%esi
  40152f:	bf 04 00 00 00       	mov    $0x4,%edi
  401534:	e8 e7 fb ff ff       	call   401120 <signal@plt>
  401539:	83 3d 18 60 00 00 00 	cmpl   $0x0,0x6018(%rip)        # 407558 <is_checker>
  401540:	75 25                	jne    401567 <main+0x68>
  401542:	41 bc 2d 42 40 00    	mov    $0x40422d,%r12d
  401548:	48 8b 05 71 5f 00 00 	mov    0x5f71(%rip),%rax        # 4074c0 <stdin@@GLIBC_2.2.5>
  40154f:	48 89 05 ea 5f 00 00 	mov    %rax,0x5fea(%rip)        # 407540 <infile>
  401556:	41 bd 00 00 00 00    	mov    $0x0,%r13d
  40155c:	41 be 00 00 00 00    	mov    $0x0,%r14d
  401562:	e9 81 00 00 00       	jmp    4015e8 <main+0xe9>
  401567:	be 39 23 40 00       	mov    $0x402339,%esi
  40156c:	bf 0e 00 00 00       	mov    $0xe,%edi
  401571:	e8 aa fb ff ff       	call   401120 <signal@plt>
  401576:	bf 05 00 00 00       	mov    $0x5,%edi
  40157b:	e8 60 fb ff ff       	call   4010e0 <alarm@plt>
  401580:	41 bc 32 42 40 00    	mov    $0x404232,%r12d
  401586:	eb c0                	jmp    401548 <main+0x49>
  401588:	48 8b 3b             	mov    (%rbx),%rdi
  40158b:	e8 a6 fd ff ff       	call   401336 <usage>
  401590:	be 6e 49 40 00       	mov    $0x40496e,%esi
  401595:	48 8b 3d 44 5f 00 00 	mov    0x5f44(%rip),%rdi        # 4074e0 <optarg@@GLIBC_2.2.5>
  40159c:	e8 1f fc ff ff       	call   4011c0 <fopen@plt>
  4015a1:	48 89 05 98 5f 00 00 	mov    %rax,0x5f98(%rip)        # 407540 <infile>
  4015a8:	48 85 c0             	test   %rax,%rax
  4015ab:	75 3b                	jne    4015e8 <main+0xe9>
  4015ad:	48 8b 15 2c 5f 00 00 	mov    0x5f2c(%rip),%rdx        # 4074e0 <optarg@@GLIBC_2.2.5>
  4015b4:	be 3a 42 40 00       	mov    $0x40423a,%esi
  4015b9:	48 8b 3d 40 5f 00 00 	mov    0x5f40(%rip),%rdi        # 407500 <stderr@@GLIBC_2.2.5>
  4015c0:	e8 7b fb ff ff       	call   401140 <fprintf@plt>
  4015c5:	b8 01 00 00 00       	mov    $0x1,%eax
  4015ca:	e9 cb 00 00 00       	jmp    40169a <main+0x19b>
  4015cf:	ba 10 00 00 00       	mov    $0x10,%edx
  4015d4:	be 00 00 00 00       	mov    $0x0,%esi
  4015d9:	48 8b 3d 00 5f 00 00 	mov    0x5f00(%rip),%rdi        # 4074e0 <optarg@@GLIBC_2.2.5>
  4015e0:	e8 fb fb ff ff       	call   4011e0 <strtoul@plt>
  4015e5:	41 89 c6             	mov    %eax,%r14d
  4015e8:	4c 89 e2             	mov    %r12,%rdx
  4015eb:	48 89 de             	mov    %rbx,%rsi
  4015ee:	89 ef                	mov    %ebp,%edi
  4015f0:	e8 db fb ff ff       	call   4011d0 <getopt@plt>
  4015f5:	3c ff                	cmp    $0xff,%al
  4015f7:	74 52                	je     40164b <main+0x14c>
  4015f9:	0f be f0             	movsbl %al,%esi
  4015fc:	83 e8 61             	sub    $0x61,%eax
  4015ff:	3c 10                	cmp    $0x10,%al
  401601:	77 31                	ja     401634 <main+0x135>
  401603:	0f b6 c0             	movzbl %al,%eax
  401606:	ff 24 c5 78 42 40 00 	jmp    *0x404278(,%rax,8)
  40160d:	ba 0a 00 00 00       	mov    $0xa,%edx
  401612:	be 00 00 00 00       	mov    $0x0,%esi
  401617:	48 8b 3d c2 5e 00 00 	mov    0x5ec2(%rip),%rdi        # 4074e0 <optarg@@GLIBC_2.2.5>
  40161e:	e8 2d fb ff ff       	call   401150 <strtol@plt>
  401623:	41 89 c5             	mov    %eax,%r13d
  401626:	eb c0                	jmp    4015e8 <main+0xe9>
  401628:	c7 05 76 5e 00 00 00 	movl   $0x0,0x5e76(%rip)        # 4074a8 <notify>
  40162f:	00 00 00 
  401632:	eb b4                	jmp    4015e8 <main+0xe9>
  401634:	bf 57 42 40 00       	mov    $0x404257,%edi
  401639:	b8 00 00 00 00       	mov    $0x0,%eax
  40163e:	e8 7d fa ff ff       	call   4010c0 <printf@plt>
  401643:	48 8b 3b             	mov    (%rbx),%rdi
  401646:	e8 eb fc ff ff       	call   401336 <usage>
  40164b:	c7 05 53 5e 00 00 00 	movl   $0x0,0x5e53(%rip)        # 4074a8 <notify>
  401652:	00 00 00 
  401655:	be 01 00 00 00       	mov    $0x1,%esi
  40165a:	44 89 ef             	mov    %r13d,%edi
  40165d:	e8 54 fd ff ff       	call   4013b6 <initialize_target>
  401662:	83 3d ef 5e 00 00 00 	cmpl   $0x0,0x5eef(%rip)        # 407558 <is_checker>
  401669:	74 09                	je     401674 <main+0x175>
  40166b:	44 39 35 de 5e 00 00 	cmp    %r14d,0x5ede(%rip)        # 407550 <authkey>
  401672:	75 2f                	jne    4016a3 <main+0x1a4>
  401674:	8b 35 da 5e 00 00    	mov    0x5eda(%rip),%esi        # 407554 <cookie>
  40167a:	bf 6a 42 40 00       	mov    $0x40426a,%edi
  40167f:	b8 00 00 00 00       	mov    $0x0,%eax
  401684:	e8 37 fa ff ff       	call   4010c0 <printf@plt>
  401689:	48 8b 3d 20 5e 00 00 	mov    0x5e20(%rip),%rdi        # 4074b0 <buf_offset>
  401690:	e8 f2 0c 00 00       	call   402387 <launch>
  401695:	b8 00 00 00 00       	mov    $0x0,%eax
  40169a:	5b                   	pop    %rbx
  40169b:	5d                   	pop    %rbp
  40169c:	41 5c                	pop    %r12
  40169e:	41 5d                	pop    %r13
  4016a0:	41 5e                	pop    %r14
  4016a2:	c3                   	ret    
  4016a3:	44 89 f6             	mov    %r14d,%esi
  4016a6:	bf 90 41 40 00       	mov    $0x404190,%edi
  4016ab:	b8 00 00 00 00       	mov    $0x0,%eax
  4016b0:	e8 0b fa ff ff       	call   4010c0 <printf@plt>
  4016b5:	b8 00 00 00 00       	mov    $0x0,%eax
  4016ba:	e8 a1 08 00 00       	call   401f60 <check_fail>
  4016bf:	eb b3                	jmp    401674 <main+0x175>

00000000004016c1 <scramble>:
  4016c1:	b8 00 00 00 00       	mov    $0x0,%eax
  4016c6:	eb 11                	jmp    4016d9 <scramble+0x18>
  4016c8:	69 d0 64 2d 00 00    	imul   $0x2d64,%eax,%edx
  4016ce:	01 fa                	add    %edi,%edx
  4016d0:	89 c1                	mov    %eax,%ecx
  4016d2:	89 54 8c c8          	mov    %edx,-0x38(%rsp,%rcx,4)
  4016d6:	83 c0 01             	add    $0x1,%eax
  4016d9:	83 f8 09             	cmp    $0x9,%eax
  4016dc:	76 ea                	jbe    4016c8 <scramble+0x7>
  4016de:	8b 44 24 d4          	mov    -0x2c(%rsp),%eax
  4016e2:	69 c0 7a dd 00 00    	imul   $0xdd7a,%eax,%eax
  4016e8:	89 44 24 d4          	mov    %eax,-0x2c(%rsp)
  4016ec:	8b 44 24 cc          	mov    -0x34(%rsp),%eax
  4016f0:	6b c0 74             	imul   $0x74,%eax,%eax
  4016f3:	89 44 24 cc          	mov    %eax,-0x34(%rsp)
  4016f7:	8b 44 24 e4          	mov    -0x1c(%rsp),%eax
  4016fb:	69 c0 e0 18 00 00    	imul   $0x18e0,%eax,%eax
  401701:	89 44 24 e4          	mov    %eax,-0x1c(%rsp)
  401705:	8b 44 24 e4          	mov    -0x1c(%rsp),%eax
  401709:	69 c0 e3 a8 00 00    	imul   $0xa8e3,%eax,%eax
  40170f:	89 44 24 e4          	mov    %eax,-0x1c(%rsp)
  401713:	8b 44 24 d8          	mov    -0x28(%rsp),%eax
  401717:	69 c0 d7 aa 00 00    	imul   $0xaad7,%eax,%eax
  40171d:	89 44 24 d8          	mov    %eax,-0x28(%rsp)
  401721:	8b 44 24 cc          	mov    -0x34(%rsp),%eax
  401725:	69 c0 7c 63 00 00    	imul   $0x637c,%eax,%eax
  40172b:	89 44 24 cc          	mov    %eax,-0x34(%rsp)
  40172f:	8b 44 24 cc          	mov    -0x34(%rsp),%eax
  401733:	69 c0 1a f8 00 00    	imul   $0xf81a,%eax,%eax
  401739:	89 44 24 cc          	mov    %eax,-0x34(%rsp)
  40173d:	8b 44 24 d8          	mov    -0x28(%rsp),%eax
  401741:	69 c0 05 35 00 00    	imul   $0x3505,%eax,%eax
  401747:	89 44 24 d8          	mov    %eax,-0x28(%rsp)
  40174b:	8b 44 24 e8          	mov    -0x18(%rsp),%eax
  40174f:	69 c0 ef 2e 00 00    	imul   $0x2eef,%eax,%eax
  401755:	89 44 24 e8          	mov    %eax,-0x18(%rsp)
  401759:	8b 44 24 cc          	mov    -0x34(%rsp),%eax
  40175d:	69 c0 07 ef 00 00    	imul   $0xef07,%eax,%eax
  401763:	89 44 24 cc          	mov    %eax,-0x34(%rsp)
  401767:	8b 44 24 d8          	mov    -0x28(%rsp),%eax
  40176b:	69 c0 4d 39 00 00    	imul   $0x394d,%eax,%eax
  401771:	89 44 24 d8          	mov    %eax,-0x28(%rsp)
  401775:	8b 44 24 c8          	mov    -0x38(%rsp),%eax
  401779:	69 c0 4d ad 00 00    	imul   $0xad4d,%eax,%eax
  40177f:	89 44 24 c8          	mov    %eax,-0x38(%rsp)
  401783:	8b 44 24 e0          	mov    -0x20(%rsp),%eax
  401787:	69 c0 9b 19 00 00    	imul   $0x199b,%eax,%eax
  40178d:	89 44 24 e0          	mov    %eax,-0x20(%rsp)
  401791:	8b 44 24 d0          	mov    -0x30(%rsp),%eax
  401795:	69 c0 b2 b1 00 00    	imul   $0xb1b2,%eax,%eax
  40179b:	89 44 24 d0          	mov    %eax,-0x30(%rsp)
  40179f:	8b 44 24 d4          	mov    -0x2c(%rsp),%eax
  4017a3:	69 c0 92 cd 00 00    	imul   $0xcd92,%eax,%eax
  4017a9:	89 44 24 d4          	mov    %eax,-0x2c(%rsp)
  4017ad:	8b 44 24 e0          	mov    -0x20(%rsp),%eax
  4017b1:	69 c0 3f e5 00 00    	imul   $0xe53f,%eax,%eax
  4017b7:	89 44 24 e0          	mov    %eax,-0x20(%rsp)
  4017bb:	8b 44 24 cc          	mov    -0x34(%rsp),%eax
  4017bf:	69 c0 bb dd 00 00    	imul   $0xddbb,%eax,%eax
  4017c5:	89 44 24 cc          	mov    %eax,-0x34(%rsp)
  4017c9:	8b 44 24 e4          	mov    -0x1c(%rsp),%eax
  4017cd:	69 c0 fd 87 00 00    	imul   $0x87fd,%eax,%eax
  4017d3:	89 44 24 e4          	mov    %eax,-0x1c(%rsp)
  4017d7:	8b 44 24 c8          	mov    -0x38(%rsp),%eax
  4017db:	69 c0 6e cd 00 00    	imul   $0xcd6e,%eax,%eax
  4017e1:	89 44 24 c8          	mov    %eax,-0x38(%rsp)
  4017e5:	8b 44 24 e4          	mov    -0x1c(%rsp),%eax
  4017e9:	69 c0 1e f6 00 00    	imul   $0xf61e,%eax,%eax
  4017ef:	89 44 24 e4          	mov    %eax,-0x1c(%rsp)
  4017f3:	8b 44 24 c8          	mov    -0x38(%rsp),%eax
  4017f7:	69 c0 08 d2 00 00    	imul   $0xd208,%eax,%eax
  4017fd:	89 44 24 c8          	mov    %eax,-0x38(%rsp)
  401801:	8b 44 24 e8          	mov    -0x18(%rsp),%eax
  401805:	69 c0 17 5e 00 00    	imul   $0x5e17,%eax,%eax
  40180b:	89 44 24 e8          	mov    %eax,-0x18(%rsp)
  40180f:	8b 44 24 e0          	mov    -0x20(%rsp),%eax
  401813:	69 c0 d7 e4 00 00    	imul   $0xe4d7,%eax,%eax
  401819:	89 44 24 e0          	mov    %eax,-0x20(%rsp)
  40181d:	8b 44 24 dc          	mov    -0x24(%rsp),%eax
  401821:	69 c0 80 15 00 00    	imul   $0x1580,%eax,%eax
  401827:	89 44 24 dc          	mov    %eax,-0x24(%rsp)
  40182b:	8b 44 24 d0          	mov    -0x30(%rsp),%eax
  40182f:	69 c0 fc ef 00 00    	imul   $0xeffc,%eax,%eax
  401835:	89 44 24 d0          	mov    %eax,-0x30(%rsp)
  401839:	8b 44 24 dc          	mov    -0x24(%rsp),%eax
  40183d:	69 c0 44 6f 00 00    	imul   $0x6f44,%eax,%eax
  401843:	89 44 24 dc          	mov    %eax,-0x24(%rsp)
  401847:	8b 44 24 dc          	mov    -0x24(%rsp),%eax
  40184b:	69 c0 2e 03 00 00    	imul   $0x32e,%eax,%eax
  401851:	89 44 24 dc          	mov    %eax,-0x24(%rsp)
  401855:	8b 44 24 c8          	mov    -0x38(%rsp),%eax
  401859:	69 c0 98 36 00 00    	imul   $0x3698,%eax,%eax
  40185f:	89 44 24 c8          	mov    %eax,-0x38(%rsp)
  401863:	8b 44 24 d8          	mov    -0x28(%rsp),%eax
  401867:	69 c0 37 ff 00 00    	imul   $0xff37,%eax,%eax
  40186d:	89 44 24 d8          	mov    %eax,-0x28(%rsp)
  401871:	8b 44 24 dc          	mov    -0x24(%rsp),%eax
  401875:	69 c0 a4 d4 00 00    	imul   $0xd4a4,%eax,%eax
  40187b:	89 44 24 dc          	mov    %eax,-0x24(%rsp)
  40187f:	8b 44 24 ec          	mov    -0x14(%rsp),%eax
  401883:	69 c0 d3 24 00 00    	imul   $0x24d3,%eax,%eax
  401889:	89 44 24 ec          	mov    %eax,-0x14(%rsp)
  40188d:	8b 44 24 e0          	mov    -0x20(%rsp),%eax
  401891:	69 c0 d5 77 00 00    	imul   $0x77d5,%eax,%eax
  401897:	89 44 24 e0          	mov    %eax,-0x20(%rsp)
  40189b:	8b 44 24 e8          	mov    -0x18(%rsp),%eax
  40189f:	69 c0 97 9f 00 00    	imul   $0x9f97,%eax,%eax
  4018a5:	89 44 24 e8          	mov    %eax,-0x18(%rsp)
  4018a9:	8b 44 24 cc          	mov    -0x34(%rsp),%eax
  4018ad:	69 c0 29 f9 00 00    	imul   $0xf929,%eax,%eax
  4018b3:	89 44 24 cc          	mov    %eax,-0x34(%rsp)
  4018b7:	8b 44 24 d0          	mov    -0x30(%rsp),%eax
  4018bb:	69 c0 b2 30 00 00    	imul   $0x30b2,%eax,%eax
  4018c1:	89 44 24 d0          	mov    %eax,-0x30(%rsp)
  4018c5:	8b 44 24 e4          	mov    -0x1c(%rsp),%eax
  4018c9:	69 c0 4b e5 00 00    	imul   $0xe54b,%eax,%eax
  4018cf:	89 44 24 e4          	mov    %eax,-0x1c(%rsp)
  4018d3:	8b 44 24 d0          	mov    -0x30(%rsp),%eax
  4018d7:	69 c0 e2 48 00 00    	imul   $0x48e2,%eax,%eax
  4018dd:	89 44 24 d0          	mov    %eax,-0x30(%rsp)
  4018e1:	8b 44 24 e8          	mov    -0x18(%rsp),%eax
  4018e5:	69 c0 dd cc 00 00    	imul   $0xccdd,%eax,%eax
  4018eb:	89 44 24 e8          	mov    %eax,-0x18(%rsp)
  4018ef:	8b 44 24 c8          	mov    -0x38(%rsp),%eax
  4018f3:	69 c0 7e d6 00 00    	imul   $0xd67e,%eax,%eax
  4018f9:	89 44 24 c8          	mov    %eax,-0x38(%rsp)
  4018fd:	8b 44 24 e0          	mov    -0x20(%rsp),%eax
  401901:	69 c0 81 41 00 00    	imul   $0x4181,%eax,%eax
  401907:	89 44 24 e0          	mov    %eax,-0x20(%rsp)
  40190b:	8b 44 24 d4          	mov    -0x2c(%rsp),%eax
  40190f:	69 c0 e6 e6 00 00    	imul   $0xe6e6,%eax,%eax
  401915:	89 44 24 d4          	mov    %eax,-0x2c(%rsp)
  401919:	8b 44 24 c8          	mov    -0x38(%rsp),%eax
  40191d:	69 c0 c3 ef 00 00    	imul   $0xefc3,%eax,%eax
  401923:	89 44 24 c8          	mov    %eax,-0x38(%rsp)
  401927:	8b 44 24 ec          	mov    -0x14(%rsp),%eax
  40192b:	69 c0 57 cd 00 00    	imul   $0xcd57,%eax,%eax
  401931:	89 44 24 ec          	mov    %eax,-0x14(%rsp)
  401935:	8b 44 24 e0          	mov    -0x20(%rsp),%eax
  401939:	69 c0 de 06 00 00    	imul   $0x6de,%eax,%eax
  40193f:	89 44 24 e0          	mov    %eax,-0x20(%rsp)
  401943:	8b 44 24 dc          	mov    -0x24(%rsp),%eax
  401947:	69 c0 a5 0e 00 00    	imul   $0xea5,%eax,%eax
  40194d:	89 44 24 dc          	mov    %eax,-0x24(%rsp)
  401951:	8b 44 24 d4          	mov    -0x2c(%rsp),%eax
  401955:	69 c0 58 99 00 00    	imul   $0x9958,%eax,%eax
  40195b:	89 44 24 d4          	mov    %eax,-0x2c(%rsp)
  40195f:	8b 44 24 dc          	mov    -0x24(%rsp),%eax
  401963:	69 c0 66 95 00 00    	imul   $0x9566,%eax,%eax
  401969:	89 44 24 dc          	mov    %eax,-0x24(%rsp)
  40196d:	8b 44 24 ec          	mov    -0x14(%rsp),%eax
  401971:	69 c0 07 36 00 00    	imul   $0x3607,%eax,%eax
  401977:	89 44 24 ec          	mov    %eax,-0x14(%rsp)
  40197b:	8b 44 24 e4          	mov    -0x1c(%rsp),%eax
  40197f:	69 c0 00 11 00 00    	imul   $0x1100,%eax,%eax
  401985:	89 44 24 e4          	mov    %eax,-0x1c(%rsp)
  401989:	8b 44 24 e0          	mov    -0x20(%rsp),%eax
  40198d:	69 c0 03 a2 00 00    	imul   $0xa203,%eax,%eax
  401993:	89 44 24 e0          	mov    %eax,-0x20(%rsp)
  401997:	8b 44 24 d0          	mov    -0x30(%rsp),%eax
  40199b:	69 c0 79 1e 00 00    	imul   $0x1e79,%eax,%eax
  4019a1:	89 44 24 d0          	mov    %eax,-0x30(%rsp)
  4019a5:	8b 44 24 dc          	mov    -0x24(%rsp),%eax
  4019a9:	69 c0 6d 44 00 00    	imul   $0x446d,%eax,%eax
  4019af:	89 44 24 dc          	mov    %eax,-0x24(%rsp)
  4019b3:	8b 44 24 ec          	mov    -0x14(%rsp),%eax
  4019b7:	69 c0 b0 ca 00 00    	imul   $0xcab0,%eax,%eax
  4019bd:	89 44 24 ec          	mov    %eax,-0x14(%rsp)
  4019c1:	8b 44 24 d8          	mov    -0x28(%rsp),%eax
  4019c5:	69 c0 15 95 00 00    	imul   $0x9515,%eax,%eax
  4019cb:	89 44 24 d8          	mov    %eax,-0x28(%rsp)
  4019cf:	8b 44 24 d0          	mov    -0x30(%rsp),%eax
  4019d3:	69 c0 a9 f3 00 00    	imul   $0xf3a9,%eax,%eax
  4019d9:	89 44 24 d0          	mov    %eax,-0x30(%rsp)
  4019dd:	8b 44 24 d4          	mov    -0x2c(%rsp),%eax
  4019e1:	69 c0 a8 67 00 00    	imul   $0x67a8,%eax,%eax
  4019e7:	89 44 24 d4          	mov    %eax,-0x2c(%rsp)
  4019eb:	8b 44 24 cc          	mov    -0x34(%rsp),%eax
  4019ef:	69 c0 5c 87 00 00    	imul   $0x875c,%eax,%eax
  4019f5:	89 44 24 cc          	mov    %eax,-0x34(%rsp)
  4019f9:	8b 44 24 cc          	mov    -0x34(%rsp),%eax
  4019fd:	69 c0 a3 c4 00 00    	imul   $0xc4a3,%eax,%eax
  401a03:	89 44 24 cc          	mov    %eax,-0x34(%rsp)
  401a07:	8b 44 24 e0          	mov    -0x20(%rsp),%eax
  401a0b:	69 c0 c7 7d 00 00    	imul   $0x7dc7,%eax,%eax
  401a11:	89 44 24 e0          	mov    %eax,-0x20(%rsp)
  401a15:	8b 44 24 e8          	mov    -0x18(%rsp),%eax
  401a19:	69 c0 41 21 00 00    	imul   $0x2141,%eax,%eax
  401a1f:	89 44 24 e8          	mov    %eax,-0x18(%rsp)
  401a23:	8b 44 24 d4          	mov    -0x2c(%rsp),%eax
  401a27:	69 c0 05 a7 00 00    	imul   $0xa705,%eax,%eax
  401a2d:	89 44 24 d4          	mov    %eax,-0x2c(%rsp)
  401a31:	8b 44 24 ec          	mov    -0x14(%rsp),%eax
  401a35:	69 c0 e5 bf 00 00    	imul   $0xbfe5,%eax,%eax
  401a3b:	89 44 24 ec          	mov    %eax,-0x14(%rsp)
  401a3f:	8b 44 24 d4          	mov    -0x2c(%rsp),%eax
  401a43:	69 c0 c7 cb 00 00    	imul   $0xcbc7,%eax,%eax
  401a49:	89 44 24 d4          	mov    %eax,-0x2c(%rsp)
  401a4d:	8b 44 24 dc          	mov    -0x24(%rsp),%eax
  401a51:	69 c0 69 71 00 00    	imul   $0x7169,%eax,%eax
  401a57:	89 44 24 dc          	mov    %eax,-0x24(%rsp)
  401a5b:	8b 44 24 d0          	mov    -0x30(%rsp),%eax
  401a5f:	69 c0 1e 25 00 00    	imul   $0x251e,%eax,%eax
  401a65:	89 44 24 d0          	mov    %eax,-0x30(%rsp)
  401a69:	8b 44 24 d4          	mov    -0x2c(%rsp),%eax
  401a6d:	69 c0 79 1e 00 00    	imul   $0x1e79,%eax,%eax
  401a73:	89 44 24 d4          	mov    %eax,-0x2c(%rsp)
  401a77:	8b 44 24 e4          	mov    -0x1c(%rsp),%eax
  401a7b:	69 c0 ba 9a 00 00    	imul   $0x9aba,%eax,%eax
  401a81:	89 44 24 e4          	mov    %eax,-0x1c(%rsp)
  401a85:	8b 44 24 c8          	mov    -0x38(%rsp),%eax
  401a89:	69 c0 f2 aa 00 00    	imul   $0xaaf2,%eax,%eax
  401a8f:	89 44 24 c8          	mov    %eax,-0x38(%rsp)
  401a93:	8b 44 24 e8          	mov    -0x18(%rsp),%eax
  401a97:	69 c0 32 74 00 00    	imul   $0x7432,%eax,%eax
  401a9d:	89 44 24 e8          	mov    %eax,-0x18(%rsp)
  401aa1:	8b 44 24 e4          	mov    -0x1c(%rsp),%eax
  401aa5:	69 c0 98 06 00 00    	imul   $0x698,%eax,%eax
  401aab:	89 44 24 e4          	mov    %eax,-0x1c(%rsp)
  401aaf:	8b 44 24 e0          	mov    -0x20(%rsp),%eax
  401ab3:	69 c0 9e 16 00 00    	imul   $0x169e,%eax,%eax
  401ab9:	89 44 24 e0          	mov    %eax,-0x20(%rsp)
  401abd:	8b 44 24 c8          	mov    -0x38(%rsp),%eax
  401ac1:	69 c0 6a 42 00 00    	imul   $0x426a,%eax,%eax
  401ac7:	89 44 24 c8          	mov    %eax,-0x38(%rsp)
  401acb:	8b 44 24 dc          	mov    -0x24(%rsp),%eax
  401acf:	69 c0 ab c5 00 00    	imul   $0xc5ab,%eax,%eax
  401ad5:	89 44 24 dc          	mov    %eax,-0x24(%rsp)
  401ad9:	8b 44 24 d0          	mov    -0x30(%rsp),%eax
  401add:	69 c0 ad f2 00 00    	imul   $0xf2ad,%eax,%eax
  401ae3:	89 44 24 d0          	mov    %eax,-0x30(%rsp)
  401ae7:	8b 44 24 cc          	mov    -0x34(%rsp),%eax
  401aeb:	69 c0 8f d2 00 00    	imul   $0xd28f,%eax,%eax
  401af1:	89 44 24 cc          	mov    %eax,-0x34(%rsp)
  401af5:	8b 44 24 e0          	mov    -0x20(%rsp),%eax
  401af9:	69 c0 df cf 00 00    	imul   $0xcfdf,%eax,%eax
  401aff:	89 44 24 e0          	mov    %eax,-0x20(%rsp)
  401b03:	8b 44 24 d8          	mov    -0x28(%rsp),%eax
  401b07:	69 c0 88 ce 00 00    	imul   $0xce88,%eax,%eax
  401b0d:	89 44 24 d8          	mov    %eax,-0x28(%rsp)
  401b11:	8b 44 24 dc          	mov    -0x24(%rsp),%eax
  401b15:	69 c0 00 b6 00 00    	imul   $0xb600,%eax,%eax
  401b1b:	89 44 24 dc          	mov    %eax,-0x24(%rsp)
  401b1f:	8b 44 24 ec          	mov    -0x14(%rsp),%eax
  401b23:	69 c0 b1 85 00 00    	imul   $0x85b1,%eax,%eax
  401b29:	89 44 24 ec          	mov    %eax,-0x14(%rsp)
  401b2d:	8b 44 24 cc          	mov    -0x34(%rsp),%eax
  401b31:	69 c0 16 77 00 00    	imul   $0x7716,%eax,%eax
  401b37:	89 44 24 cc          	mov    %eax,-0x34(%rsp)
  401b3b:	8b 44 24 e0          	mov    -0x20(%rsp),%eax
  401b3f:	69 c0 d5 3a 00 00    	imul   $0x3ad5,%eax,%eax
  401b45:	89 44 24 e0          	mov    %eax,-0x20(%rsp)
  401b49:	8b 44 24 ec          	mov    -0x14(%rsp),%eax
  401b4d:	69 c0 66 ee 00 00    	imul   $0xee66,%eax,%eax
  401b53:	89 44 24 ec          	mov    %eax,-0x14(%rsp)
  401b57:	8b 44 24 ec          	mov    -0x14(%rsp),%eax
  401b5b:	69 c0 77 f8 00 00    	imul   $0xf877,%eax,%eax
  401b61:	89 44 24 ec          	mov    %eax,-0x14(%rsp)
  401b65:	8b 44 24 cc          	mov    -0x34(%rsp),%eax
  401b69:	69 c0 f9 3a 00 00    	imul   $0x3af9,%eax,%eax
  401b6f:	89 44 24 cc          	mov    %eax,-0x34(%rsp)
  401b73:	8b 44 24 dc          	mov    -0x24(%rsp),%eax
  401b77:	69 c0 61 d9 00 00    	imul   $0xd961,%eax,%eax
  401b7d:	89 44 24 dc          	mov    %eax,-0x24(%rsp)
  401b81:	8b 44 24 ec          	mov    -0x14(%rsp),%eax
  401b85:	69 c0 84 d4 00 00    	imul   $0xd484,%eax,%eax
  401b8b:	89 44 24 ec          	mov    %eax,-0x14(%rsp)
  401b8f:	8b 44 24 c8          	mov    -0x38(%rsp),%eax
  401b93:	69 c0 d1 af 00 00    	imul   $0xafd1,%eax,%eax
  401b99:	89 44 24 c8          	mov    %eax,-0x38(%rsp)
  401b9d:	8b 44 24 d0          	mov    -0x30(%rsp),%eax
  401ba1:	69 c0 fa 8d 00 00    	imul   $0x8dfa,%eax,%eax
  401ba7:	89 44 24 d0          	mov    %eax,-0x30(%rsp)
  401bab:	8b 44 24 d4          	mov    -0x2c(%rsp),%eax
  401baf:	69 c0 fb 1d 00 00    	imul   $0x1dfb,%eax,%eax
  401bb5:	89 44 24 d4          	mov    %eax,-0x2c(%rsp)
  401bb9:	8b 44 24 ec          	mov    -0x14(%rsp),%eax
  401bbd:	69 c0 ef b8 00 00    	imul   $0xb8ef,%eax,%eax
  401bc3:	89 44 24 ec          	mov    %eax,-0x14(%rsp)
  401bc7:	8b 44 24 c8          	mov    -0x38(%rsp),%eax
  401bcb:	69 c0 96 94 00 00    	imul   $0x9496,%eax,%eax
  401bd1:	89 44 24 c8          	mov    %eax,-0x38(%rsp)
  401bd5:	8b 44 24 cc          	mov    -0x34(%rsp),%eax
  401bd9:	69 c0 1f 6a 00 00    	imul   $0x6a1f,%eax,%eax
  401bdf:	89 44 24 cc          	mov    %eax,-0x34(%rsp)
  401be3:	8b 44 24 dc          	mov    -0x24(%rsp),%eax
  401be7:	69 c0 92 18 00 00    	imul   $0x1892,%eax,%eax
  401bed:	89 44 24 dc          	mov    %eax,-0x24(%rsp)
  401bf1:	8b 44 24 e0          	mov    -0x20(%rsp),%eax
  401bf5:	69 c0 6e fd 00 00    	imul   $0xfd6e,%eax,%eax
  401bfb:	89 44 24 e0          	mov    %eax,-0x20(%rsp)
  401bff:	8b 44 24 ec          	mov    -0x14(%rsp),%eax
  401c03:	69 c0 88 47 00 00    	imul   $0x4788,%eax,%eax
  401c09:	89 44 24 ec          	mov    %eax,-0x14(%rsp)
  401c0d:	8b 44 24 ec          	mov    -0x14(%rsp),%eax
  401c11:	69 c0 13 49 00 00    	imul   $0x4913,%eax,%eax
  401c17:	89 44 24 ec          	mov    %eax,-0x14(%rsp)
  401c1b:	b8 00 00 00 00       	mov    $0x0,%eax
  401c20:	ba 00 00 00 00       	mov    $0x0,%edx
  401c25:	eb 0b                	jmp    401c32 <scramble+0x571>
  401c27:	89 c1                	mov    %eax,%ecx
  401c29:	8b 4c 8c c8          	mov    -0x38(%rsp,%rcx,4),%ecx
  401c2d:	01 ca                	add    %ecx,%edx
  401c2f:	83 c0 01             	add    $0x1,%eax
  401c32:	83 f8 09             	cmp    $0x9,%eax
  401c35:	76 f0                	jbe    401c27 <scramble+0x566>
  401c37:	89 d0                	mov    %edx,%eax
  401c39:	c3                   	ret    

0000000000401c3a <getbuf>:
  401c3a:	48 83 ec 18          	sub    $0x18,%rsp
  401c3e:	48 89 e7             	mov    %rsp,%rdi
  401c41:	e8 49 03 00 00       	call   401f8f <Gets>
  401c46:	b8 01 00 00 00       	mov    $0x1,%eax
  401c4b:	48 83 c4 18          	add    $0x18,%rsp
  401c4f:	c3                   	ret    

0000000000401c50 <touch1>:
  401c50:	48 83 ec 08          	sub    $0x8,%rsp
  401c54:	c7 05 ee 58 00 00 01 	movl   $0x1,0x58ee(%rip)        # 40754c <vlevel>
  401c5b:	00 00 00 
  401c5e:	bf c8 47 40 00       	mov    $0x4047c8,%edi
  401c63:	e8 18 f4 ff ff       	call   401080 <puts@plt>
  401c68:	bf 01 00 00 00       	mov    $0x1,%edi
  401c6d:	e8 03 05 00 00       	call   402175 <validate>
  401c72:	bf 00 00 00 00       	mov    $0x0,%edi
  401c77:	e8 94 f5 ff ff       	call   401210 <exit@plt>

0000000000401c7c <touch2>:
  401c7c:	48 83 ec 08          	sub    $0x8,%rsp
  401c80:	89 fe                	mov    %edi,%esi
  401c82:	c7 05 c0 58 00 00 02 	movl   $0x2,0x58c0(%rip)        # 40754c <vlevel>
  401c89:	00 00 00 
  401c8c:	39 3d c2 58 00 00    	cmp    %edi,0x58c2(%rip)        # 407554 <cookie>
  401c92:	74 23                	je     401cb7 <touch2+0x3b>
  401c94:	bf 18 48 40 00       	mov    $0x404818,%edi
  401c99:	b8 00 00 00 00       	mov    $0x0,%eax
  401c9e:	e8 1d f4 ff ff       	call   4010c0 <printf@plt>
  401ca3:	bf 02 00 00 00       	mov    $0x2,%edi
  401ca8:	e8 7a 05 00 00       	call   402227 <fail>
  401cad:	bf 00 00 00 00       	mov    $0x0,%edi
  401cb2:	e8 59 f5 ff ff       	call   401210 <exit@plt>
  401cb7:	bf f0 47 40 00       	mov    $0x4047f0,%edi
  401cbc:	b8 00 00 00 00       	mov    $0x0,%eax
  401cc1:	e8 fa f3 ff ff       	call   4010c0 <printf@plt>
  401cc6:	bf 02 00 00 00       	mov    $0x2,%edi
  401ccb:	e8 a5 04 00 00       	call   402175 <validate>
  401cd0:	eb db                	jmp    401cad <touch2+0x31>

0000000000401cd2 <hexmatch>:
  401cd2:	41 54                	push   %r12
  401cd4:	55                   	push   %rbp
  401cd5:	53                   	push   %rbx
  401cd6:	48 83 ec 70          	sub    $0x70,%rsp
  401cda:	89 fd                	mov    %edi,%ebp
  401cdc:	48 89 f3             	mov    %rsi,%rbx
  401cdf:	e8 9c f4 ff ff       	call   401180 <random@plt>
  401ce4:	48 89 c1             	mov    %rax,%rcx
  401ce7:	48 ba 0b d7 a3 70 3d 	movabs $0xa3d70a3d70a3d70b,%rdx
  401cee:	0a d7 a3 
  401cf1:	48 f7 ea             	imul   %rdx
  401cf4:	48 01 ca             	add    %rcx,%rdx
  401cf7:	48 c1 fa 06          	sar    $0x6,%rdx
  401cfb:	48 89 c8             	mov    %rcx,%rax
  401cfe:	48 c1 f8 3f          	sar    $0x3f,%rax
  401d02:	48 29 c2             	sub    %rax,%rdx
  401d05:	48 8d 04 92          	lea    (%rdx,%rdx,4),%rax
  401d09:	48 8d 04 80          	lea    (%rax,%rax,4),%rax
  401d0d:	48 c1 e0 02          	shl    $0x2,%rax
  401d11:	48 29 c1             	sub    %rax,%rcx
  401d14:	4c 8d 24 0c          	lea    (%rsp,%rcx,1),%r12
  401d18:	89 ea                	mov    %ebp,%edx
  401d1a:	be e5 47 40 00       	mov    $0x4047e5,%esi
  401d1f:	4c 89 e7             	mov    %r12,%rdi
  401d22:	b8 00 00 00 00       	mov    $0x0,%eax
  401d27:	e8 d4 f4 ff ff       	call   401200 <sprintf@plt>
  401d2c:	ba 09 00 00 00       	mov    $0x9,%edx
  401d31:	4c 89 e6             	mov    %r12,%rsi
  401d34:	48 89 df             	mov    %rbx,%rdi
  401d37:	e8 24 f3 ff ff       	call   401060 <strncmp@plt>
  401d3c:	85 c0                	test   %eax,%eax
  401d3e:	0f 94 c0             	sete   %al
  401d41:	0f b6 c0             	movzbl %al,%eax
  401d44:	48 83 c4 70          	add    $0x70,%rsp
  401d48:	5b                   	pop    %rbx
  401d49:	5d                   	pop    %rbp
  401d4a:	41 5c                	pop    %r12
  401d4c:	c3                   	ret    

0000000000401d4d <touch3>:
  401d4d:	53                   	push   %rbx
  401d4e:	48 89 fb             	mov    %rdi,%rbx
  401d51:	c7 05 f1 57 00 00 03 	movl   $0x3,0x57f1(%rip)        # 40754c <vlevel>
  401d58:	00 00 00 
  401d5b:	48 89 fe             	mov    %rdi,%rsi
  401d5e:	8b 3d f0 57 00 00    	mov    0x57f0(%rip),%edi        # 407554 <cookie>
  401d64:	e8 69 ff ff ff       	call   401cd2 <hexmatch>
  401d69:	85 c0                	test   %eax,%eax
  401d6b:	74 26                	je     401d93 <touch3+0x46>
  401d6d:	48 89 de             	mov    %rbx,%rsi
  401d70:	bf 40 48 40 00       	mov    $0x404840,%edi
  401d75:	b8 00 00 00 00       	mov    $0x0,%eax
  401d7a:	e8 41 f3 ff ff       	call   4010c0 <printf@plt>
  401d7f:	bf 03 00 00 00       	mov    $0x3,%edi
  401d84:	e8 ec 03 00 00       	call   402175 <validate>
  401d89:	bf 00 00 00 00       	mov    $0x0,%edi
  401d8e:	e8 7d f4 ff ff       	call   401210 <exit@plt>
  401d93:	48 89 de             	mov    %rbx,%rsi
  401d96:	bf 68 48 40 00       	mov    $0x404868,%edi
  401d9b:	b8 00 00 00 00       	mov    $0x0,%eax
  401da0:	e8 1b f3 ff ff       	call   4010c0 <printf@plt>
  401da5:	bf 03 00 00 00       	mov    $0x3,%edi
  401daa:	e8 78 04 00 00       	call   402227 <fail>
  401daf:	eb d8                	jmp    401d89 <touch3+0x3c>

0000000000401db1 <test>:
  401db1:	48 83 ec 08          	sub    $0x8,%rsp
  401db5:	b8 00 00 00 00       	mov    $0x0,%eax
  401dba:	e8 7b fe ff ff       	call   401c3a <getbuf>
  401dbf:	89 c6                	mov    %eax,%esi
  401dc1:	bf 90 48 40 00       	mov    $0x404890,%edi
  401dc6:	b8 00 00 00 00       	mov    $0x0,%eax
  401dcb:	e8 f0 f2 ff ff       	call   4010c0 <printf@plt>
  401dd0:	48 83 c4 08          	add    $0x8,%rsp
  401dd4:	c3                   	ret    

0000000000401dd5 <start_farm>:
  401dd5:	b8 01 00 00 00       	mov    $0x1,%eax
  401dda:	c3                   	ret    

0000000000401ddb <getval_436>:
  401ddb:	b8 3d 45 58 92       	mov    $0x9258453d,%eax
  401de0:	c3                   	ret    

0000000000401de1 <setval_147>:
  401de1:	c7 07 5f bf 58 90    	movl   $0x9058bf5f,(%rdi)
  401de7:	c3                   	ret    

0000000000401de8 <addval_189>:
  401de8:	8d 87 48 89 c7 90    	lea    -0x6f3876b8(%rdi),%eax
  401dee:	c3                   	ret    

0000000000401def <setval_350>:
  401def:	c7 07 2f 5c 2f 58    	movl   $0x582f5c2f,(%rdi)
  401df5:	c3                   	ret    

0000000000401df6 <getval_281>:
  401df6:	b8 48 89 c7 c7       	mov    $0xc7c78948,%eax
  401dfb:	c3                   	ret    

0000000000401dfc <setval_323>:
  401dfc:	c7 07 48 89 c7 c3    	movl   $0xc3c78948,(%rdi)
  401e02:	c3                   	ret    

0000000000401e03 <setval_348>:
  401e03:	c7 07 48 88 c7 c3    	movl   $0xc3c78848,(%rdi)
  401e09:	c3                   	ret    

0000000000401e0a <setval_109>:
  401e0a:	c7 07 78 90 90 90    	movl   $0x90909078,(%rdi)
  401e10:	c3                   	ret    

0000000000401e11 <mid_farm>:
  401e11:	b8 01 00 00 00       	mov    $0x1,%eax
  401e16:	c3                   	ret    

0000000000401e17 <add_xy>:
  401e17:	48 8d 04 37          	lea    (%rdi,%rsi,1),%rax
  401e1b:	c3                   	ret    

0000000000401e1c <addval_477>:
  401e1c:	8d 87 48 89 e0 90    	lea    -0x6f1f76b8(%rdi),%eax
  401e22:	c3                   	ret    

0000000000401e23 <addval_239>:
  401e23:	8d 87 89 c1 a4 db    	lea    -0x245b3e77(%rdi),%eax
  401e29:	c3                   	ret    

0000000000401e2a <addval_152>:
  401e2a:	8d 87 48 89 e0 c3    	lea    -0x3c1f76b8(%rdi),%eax
  401e30:	c3                   	ret    

0000000000401e31 <addval_499>:
  401e31:	8d 87 89 d6 48 d2    	lea    -0x2db72977(%rdi),%eax
  401e37:	c3                   	ret    

0000000000401e38 <addval_302>:
  401e38:	8d 87 8d ca 38 c0    	lea    -0x3fc73573(%rdi),%eax
  401e3e:	c3                   	ret    

0000000000401e3f <addval_279>:
  401e3f:	8d 87 89 c1 38 d2    	lea    -0x2dc73e77(%rdi),%eax
  401e45:	c3                   	ret    

0000000000401e46 <setval_251>:
  401e46:	c7 07 8d d6 08 c9    	movl   $0xc908d68d,(%rdi)
  401e4c:	c3                   	ret    

0000000000401e4d <getval_126>:
  401e4d:	b8 89 ca 94 d2       	mov    $0xd294ca89,%eax
  401e52:	c3                   	ret    

0000000000401e53 <setval_297>:
  401e53:	c7 07 81 d6 20 c9    	movl   $0xc920d681,(%rdi)
  401e59:	c3                   	ret    

0000000000401e5a <getval_115>:
  401e5a:	b8 4c 89 e0 c3       	mov    $0xc3e0894c,%eax
  401e5f:	c3                   	ret    

0000000000401e60 <setval_269>:
  401e60:	c7 07 89 c1 28 d2    	movl   $0xd228c189,(%rdi)
  401e66:	c3                   	ret    

0000000000401e67 <addval_137>:
  401e67:	8d 87 48 89 e0 94    	lea    -0x6b1f76b8(%rdi),%eax
  401e6d:	c3                   	ret    

0000000000401e6e <getval_219>:
  401e6e:	b8 89 d6 20 db       	mov    $0xdb20d689,%eax
  401e73:	c3                   	ret    

0000000000401e74 <getval_199>:
  401e74:	b8 48 c9 e0 c3       	mov    $0xc3e0c948,%eax
  401e79:	c3                   	ret    

0000000000401e7a <addval_387>:
  401e7a:	8d 87 89 ca 00 c9    	lea    -0x36ff3577(%rdi),%eax
  401e80:	c3                   	ret    

0000000000401e81 <setval_116>:
  401e81:	c7 07 89 c1 18 db    	movl   $0xdb18c189,(%rdi)
  401e87:	c3                   	ret    

0000000000401e88 <addval_382>:
  401e88:	8d 87 84 89 c1 92    	lea    -0x6d3e767c(%rdi),%eax
  401e8e:	c3                   	ret    

0000000000401e8f <getval_498>:
  401e8f:	b8 89 ca 08 c9       	mov    $0xc908ca89,%eax
  401e94:	c3                   	ret    

0000000000401e95 <getval_171>:
  401e95:	b8 48 89 e0 c1       	mov    $0xc1e08948,%eax
  401e9a:	c3                   	ret    

0000000000401e9b <getval_270>:
  401e9b:	b8 09 ca 38 db       	mov    $0xdb38ca09,%eax
  401ea0:	c3                   	ret    

0000000000401ea1 <setval_449>:
  401ea1:	c7 07 40 89 e0 c3    	movl   $0xc3e08940,(%rdi)
  401ea7:	c3                   	ret    

0000000000401ea8 <addval_427>:
  401ea8:	8d 87 89 d6 c3 24    	lea    0x24c3d689(%rdi),%eax
  401eae:	c3                   	ret    

0000000000401eaf <getval_184>:
  401eaf:	b8 89 c1 90 c2       	mov    $0xc290c189,%eax
  401eb4:	c3                   	ret    

0000000000401eb5 <getval_262>:
  401eb5:	b8 8d c1 20 db       	mov    $0xdb20c18d,%eax
  401eba:	c3                   	ret    

0000000000401ebb <getval_280>:
  401ebb:	b8 89 d6 a4 c0       	mov    $0xc0a4d689,%eax
  401ec0:	c3                   	ret    

0000000000401ec1 <setval_336>:
  401ec1:	c7 07 89 c1 08 db    	movl   $0xdb08c189,(%rdi)
  401ec7:	c3                   	ret    

0000000000401ec8 <getval_408>:
  401ec8:	b8 89 ca 30 c0       	mov    $0xc030ca89,%eax
  401ecd:	c3                   	ret    

0000000000401ece <getval_351>:
  401ece:	b8 48 99 e0 90       	mov    $0x90e09948,%eax
  401ed3:	c3                   	ret    

0000000000401ed4 <setval_230>:
  401ed4:	c7 07 89 ca 30 c0    	movl   $0xc030ca89,(%rdi)
  401eda:	c3                   	ret    

0000000000401edb <setval_243>:
  401edb:	c7 07 89 ca 20 db    	movl   $0xdb20ca89,(%rdi)
  401ee1:	c3                   	ret    

0000000000401ee2 <addval_314>:
  401ee2:	8d 87 99 d6 08 d2    	lea    -0x2df72967(%rdi),%eax
  401ee8:	c3                   	ret    

0000000000401ee9 <setval_493>:
  401ee9:	c7 07 a9 d6 38 d2    	movl   $0xd238d6a9,(%rdi)
  401eef:	c3                   	ret    

0000000000401ef0 <end_farm>:
  401ef0:	b8 01 00 00 00       	mov    $0x1,%eax
  401ef5:	c3                   	ret    

0000000000401ef6 <save_char>:
  401ef6:	8b 05 68 62 00 00    	mov    0x6268(%rip),%eax        # 408164 <gets_cnt>
  401efc:	3d ff 03 00 00       	cmp    $0x3ff,%eax
  401f01:	7f 49                	jg     401f4c <save_char+0x56>
  401f03:	89 f9                	mov    %edi,%ecx
  401f05:	c0 e9 04             	shr    $0x4,%cl
  401f08:	8d 14 40             	lea    (%rax,%rax,2),%edx
  401f0b:	83 e1 0f             	and    $0xf,%ecx
  401f0e:	0f b6 b1 80 4b 40 00 	movzbl 0x404b80(%rcx),%esi
  401f15:	48 63 ca             	movslq %edx,%rcx
  401f18:	40 88 b1 60 75 40 00 	mov    %sil,0x407560(%rcx)
  401f1f:	8d 4a 01             	lea    0x1(%rdx),%ecx
  401f22:	83 e7 0f             	and    $0xf,%edi
  401f25:	0f b6 b7 80 4b 40 00 	movzbl 0x404b80(%rdi),%esi
  401f2c:	48 63 c9             	movslq %ecx,%rcx
  401f2f:	40 88 b1 60 75 40 00 	mov    %sil,0x407560(%rcx)
  401f36:	83 c2 02             	add    $0x2,%edx
  401f39:	48 63 d2             	movslq %edx,%rdx
  401f3c:	c6 82 60 75 40 00 20 	movb   $0x20,0x407560(%rdx)
  401f43:	83 c0 01             	add    $0x1,%eax
  401f46:	89 05 18 62 00 00    	mov    %eax,0x6218(%rip)        # 408164 <gets_cnt>
  401f4c:	c3                   	ret    

0000000000401f4d <save_term>:
  401f4d:	8b 05 11 62 00 00    	mov    0x6211(%rip),%eax        # 408164 <gets_cnt>
  401f53:	8d 04 40             	lea    (%rax,%rax,2),%eax
  401f56:	48 98                	cltq   
  401f58:	c6 80 60 75 40 00 00 	movb   $0x0,0x407560(%rax)
  401f5f:	c3                   	ret    

0000000000401f60 <check_fail>:
  401f60:	48 83 ec 08          	sub    $0x8,%rsp
  401f64:	0f be 35 cd 55 00 00 	movsbl 0x55cd(%rip),%esi        # 407538 <target_prefix>
  401f6b:	b9 60 75 40 00       	mov    $0x407560,%ecx
  401f70:	8b 15 d2 55 00 00    	mov    0x55d2(%rip),%edx        # 407548 <check_level>
  401f76:	bf b3 48 40 00       	mov    $0x4048b3,%edi
  401f7b:	b8 00 00 00 00       	mov    $0x0,%eax
  401f80:	e8 3b f1 ff ff       	call   4010c0 <printf@plt>
  401f85:	bf 01 00 00 00       	mov    $0x1,%edi
  401f8a:	e8 81 f2 ff ff       	call   401210 <exit@plt>

0000000000401f8f <Gets>:
  401f8f:	41 54                	push   %r12
  401f91:	55                   	push   %rbp
  401f92:	53                   	push   %rbx
  401f93:	49 89 fc             	mov    %rdi,%r12
  401f96:	c7 05 c4 61 00 00 00 	movl   $0x0,0x61c4(%rip)        # 408164 <gets_cnt>
  401f9d:	00 00 00 
  401fa0:	48 89 fb             	mov    %rdi,%rbx
  401fa3:	eb 11                	jmp    401fb6 <Gets+0x27>
  401fa5:	48 8d 6b 01          	lea    0x1(%rbx),%rbp
  401fa9:	88 03                	mov    %al,(%rbx)
  401fab:	0f b6 f8             	movzbl %al,%edi
  401fae:	e8 43 ff ff ff       	call   401ef6 <save_char>
  401fb3:	48 89 eb             	mov    %rbp,%rbx
  401fb6:	48 8b 3d 83 55 00 00 	mov    0x5583(%rip),%rdi        # 407540 <infile>
  401fbd:	e8 6e f2 ff ff       	call   401230 <getc@plt>
  401fc2:	83 f8 ff             	cmp    $0xffffffff,%eax
  401fc5:	74 05                	je     401fcc <Gets+0x3d>
  401fc7:	83 f8 0a             	cmp    $0xa,%eax
  401fca:	75 d9                	jne    401fa5 <Gets+0x16>
  401fcc:	c6 03 00             	movb   $0x0,(%rbx)
  401fcf:	b8 00 00 00 00       	mov    $0x0,%eax
  401fd4:	e8 74 ff ff ff       	call   401f4d <save_term>
  401fd9:	4c 89 e0             	mov    %r12,%rax
  401fdc:	5b                   	pop    %rbx
  401fdd:	5d                   	pop    %rbp
  401fde:	41 5c                	pop    %r12
  401fe0:	c3                   	ret    

0000000000401fe1 <notify_server>:
  401fe1:	83 3d 70 55 00 00 00 	cmpl   $0x0,0x5570(%rip)        # 407558 <is_checker>
  401fe8:	0f 85 86 01 00 00    	jne    402174 <notify_server+0x193>
  401fee:	55                   	push   %rbp
  401fef:	53                   	push   %rbx
  401ff0:	48 81 ec 08 40 00 00 	sub    $0x4008,%rsp
  401ff7:	89 fb                	mov    %edi,%ebx
  401ff9:	81 3d 61 61 00 00 9c 	cmpl   $0x1f9c,0x6161(%rip)        # 408164 <gets_cnt>
  402000:	1f 00 00 
  402003:	0f 8f ad 00 00 00    	jg     4020b6 <notify_server+0xd5>
  402009:	44 0f be 0d 27 55 00 	movsbl 0x5527(%rip),%r9d        # 407538 <target_prefix>
  402010:	00 
  402011:	83 3d 90 54 00 00 00 	cmpl   $0x0,0x5490(%rip)        # 4074a8 <notify>
  402018:	0f 84 b1 00 00 00    	je     4020cf <notify_server+0xee>
  40201e:	44 8b 05 2b 55 00 00 	mov    0x552b(%rip),%r8d        # 407550 <authkey>
  402025:	85 db                	test   %ebx,%ebx
  402027:	0f 84 ad 00 00 00    	je     4020da <notify_server+0xf9>
  40202d:	bd c9 48 40 00       	mov    $0x4048c9,%ebp
  402032:	68 60 75 40 00       	push   $0x407560
  402037:	56                   	push   %rsi
  402038:	48 89 e9             	mov    %rbp,%rcx
  40203b:	8b 15 27 51 00 00    	mov    0x5127(%rip),%edx        # 407168 <target_id>
  402041:	be d3 48 40 00       	mov    $0x4048d3,%esi
  402046:	48 8d bc 24 10 20 00 	lea    0x2010(%rsp),%rdi
  40204d:	00 
  40204e:	b8 00 00 00 00       	mov    $0x0,%eax
  402053:	e8 a8 f1 ff ff       	call   401200 <sprintf@plt>
  402058:	48 83 c4 10          	add    $0x10,%rsp
  40205c:	83 3d 45 54 00 00 00 	cmpl   $0x0,0x5445(%rip)        # 4074a8 <notify>
  402063:	0f 84 ab 00 00 00    	je     402114 <notify_server+0x133>
  402069:	85 db                	test   %ebx,%ebx
  40206b:	0f 84 8f 00 00 00    	je     402100 <notify_server+0x11f>
  402071:	49 89 e1             	mov    %rsp,%r9
  402074:	41 b8 00 00 00 00    	mov    $0x0,%r8d
  40207a:	48 8d 8c 24 00 20 00 	lea    0x2000(%rsp),%rcx
  402081:	00 
  402082:	48 8b 15 e7 50 00 00 	mov    0x50e7(%rip),%rdx        # 407170 <lab>
  402089:	48 8b 35 10 54 00 00 	mov    0x5410(%rip),%rsi        # 4074a0 <course>
  402090:	48 8b 3d c9 50 00 00 	mov    0x50c9(%rip),%rdi        # 407160 <user_id>
  402097:	e8 6f 0f 00 00       	call   40300b <driver_post>
  40209c:	85 c0                	test   %eax,%eax
  40209e:	78 44                	js     4020e4 <notify_server+0x103>
  4020a0:	bf 10 4a 40 00       	mov    $0x404a10,%edi
  4020a5:	e8 d6 ef ff ff       	call   401080 <puts@plt>
  4020aa:	bf fb 48 40 00       	mov    $0x4048fb,%edi
  4020af:	e8 cc ef ff ff       	call   401080 <puts@plt>
  4020b4:	eb 54                	jmp    40210a <notify_server+0x129>
  4020b6:	bf e0 49 40 00       	mov    $0x4049e0,%edi
  4020bb:	b8 00 00 00 00       	mov    $0x0,%eax
  4020c0:	e8 fb ef ff ff       	call   4010c0 <printf@plt>
  4020c5:	bf 01 00 00 00       	mov    $0x1,%edi
  4020ca:	e8 41 f1 ff ff       	call   401210 <exit@plt>
  4020cf:	41 b8 ff ff ff ff    	mov    $0xffffffff,%r8d
  4020d5:	e9 4b ff ff ff       	jmp    402025 <notify_server+0x44>
  4020da:	bd ce 48 40 00       	mov    $0x4048ce,%ebp
  4020df:	e9 4e ff ff ff       	jmp    402032 <notify_server+0x51>
  4020e4:	48 89 e6             	mov    %rsp,%rsi
  4020e7:	bf ef 48 40 00       	mov    $0x4048ef,%edi
  4020ec:	b8 00 00 00 00       	mov    $0x0,%eax
  4020f1:	e8 ca ef ff ff       	call   4010c0 <printf@plt>
  4020f6:	bf 01 00 00 00       	mov    $0x1,%edi
  4020fb:	e8 10 f1 ff ff       	call   401210 <exit@plt>
  402100:	bf 05 49 40 00       	mov    $0x404905,%edi
  402105:	e8 76 ef ff ff       	call   401080 <puts@plt>
  40210a:	48 81 c4 08 40 00 00 	add    $0x4008,%rsp
  402111:	5b                   	pop    %rbx
  402112:	5d                   	pop    %rbp
  402113:	c3                   	ret    
  402114:	bf fb 48 40 00       	mov    $0x4048fb,%edi
  402119:	e8 62 ef ff ff       	call   401080 <puts@plt>
  40211e:	48 89 ee             	mov    %rbp,%rsi
  402121:	bf 0c 49 40 00       	mov    $0x40490c,%edi
  402126:	b8 00 00 00 00       	mov    $0x0,%eax
  40212b:	e8 90 ef ff ff       	call   4010c0 <printf@plt>
  402130:	48 8b 35 29 50 00 00 	mov    0x5029(%rip),%rsi        # 407160 <user_id>
  402137:	bf 11 49 40 00       	mov    $0x404911,%edi
  40213c:	b8 00 00 00 00       	mov    $0x0,%eax
  402141:	e8 7a ef ff ff       	call   4010c0 <printf@plt>
  402146:	48 8b 35 53 53 00 00 	mov    0x5353(%rip),%rsi        # 4074a0 <course>
  40214d:	bf 1e 49 40 00       	mov    $0x40491e,%edi
  402152:	b8 00 00 00 00       	mov    $0x0,%eax
  402157:	e8 64 ef ff ff       	call   4010c0 <printf@plt>
  40215c:	48 8b 35 0d 50 00 00 	mov    0x500d(%rip),%rsi        # 407170 <lab>
  402163:	bf 2a 49 40 00       	mov    $0x40492a,%edi
  402168:	b8 00 00 00 00       	mov    $0x0,%eax
  40216d:	e8 4e ef ff ff       	call   4010c0 <printf@plt>
  402172:	eb 96                	jmp    40210a <notify_server+0x129>
  402174:	c3                   	ret    

0000000000402175 <validate>:
  402175:	53                   	push   %rbx
  402176:	89 fb                	mov    %edi,%ebx
  402178:	83 3d d9 53 00 00 00 	cmpl   $0x0,0x53d9(%rip)        # 407558 <is_checker>
  40217f:	74 60                	je     4021e1 <validate+0x6c>
  402181:	39 3d c5 53 00 00    	cmp    %edi,0x53c5(%rip)        # 40754c <vlevel>
  402187:	75 29                	jne    4021b2 <validate+0x3d>
  402189:	8b 35 b9 53 00 00    	mov    0x53b9(%rip),%esi        # 407548 <check_level>
  40218f:	39 fe                	cmp    %edi,%esi
  402191:	75 33                	jne    4021c6 <validate+0x51>
  402193:	0f be 35 9e 53 00 00 	movsbl 0x539e(%rip),%esi        # 407538 <target_prefix>
  40219a:	b9 60 75 40 00       	mov    $0x407560,%ecx
  40219f:	89 fa                	mov    %edi,%edx
  4021a1:	bf 51 49 40 00       	mov    $0x404951,%edi
  4021a6:	b8 00 00 00 00       	mov    $0x0,%eax
  4021ab:	e8 10 ef ff ff       	call   4010c0 <printf@plt>
  4021b0:	5b                   	pop    %rbx
  4021b1:	c3                   	ret    
  4021b2:	bf 33 49 40 00       	mov    $0x404933,%edi
  4021b7:	e8 c4 ee ff ff       	call   401080 <puts@plt>
  4021bc:	b8 00 00 00 00       	mov    $0x0,%eax
  4021c1:	e8 9a fd ff ff       	call   401f60 <check_fail>
  4021c6:	89 fa                	mov    %edi,%edx
  4021c8:	bf 48 4a 40 00       	mov    $0x404a48,%edi
  4021cd:	b8 00 00 00 00       	mov    $0x0,%eax
  4021d2:	e8 e9 ee ff ff       	call   4010c0 <printf@plt>
  4021d7:	b8 00 00 00 00       	mov    $0x0,%eax
  4021dc:	e8 7f fd ff ff       	call   401f60 <check_fail>
  4021e1:	39 3d 65 53 00 00    	cmp    %edi,0x5365(%rip)        # 40754c <vlevel>
  4021e7:	74 18                	je     402201 <validate+0x8c>
  4021e9:	bf 33 49 40 00       	mov    $0x404933,%edi
  4021ee:	e8 8d ee ff ff       	call   401080 <puts@plt>
  4021f3:	89 de                	mov    %ebx,%esi
  4021f5:	bf 00 00 00 00       	mov    $0x0,%edi
  4021fa:	e8 e2 fd ff ff       	call   401fe1 <notify_server>
  4021ff:	eb af                	jmp    4021b0 <validate+0x3b>
  402201:	0f be 15 30 53 00 00 	movsbl 0x5330(%rip),%edx        # 407538 <target_prefix>
  402208:	89 fe                	mov    %edi,%esi
  40220a:	bf 70 4a 40 00       	mov    $0x404a70,%edi
  40220f:	b8 00 00 00 00       	mov    $0x0,%eax
  402214:	e8 a7 ee ff ff       	call   4010c0 <printf@plt>
  402219:	89 de                	mov    %ebx,%esi
  40221b:	bf 01 00 00 00       	mov    $0x1,%edi
  402220:	e8 bc fd ff ff       	call   401fe1 <notify_server>
  402225:	eb 89                	jmp    4021b0 <validate+0x3b>

0000000000402227 <fail>:
  402227:	48 83 ec 08          	sub    $0x8,%rsp
  40222b:	83 3d 26 53 00 00 00 	cmpl   $0x0,0x5326(%rip)        # 407558 <is_checker>
  402232:	75 11                	jne    402245 <fail+0x1e>
  402234:	89 fe                	mov    %edi,%esi
  402236:	bf 00 00 00 00       	mov    $0x0,%edi
  40223b:	e8 a1 fd ff ff       	call   401fe1 <notify_server>
  402240:	48 83 c4 08          	add    $0x8,%rsp
  402244:	c3                   	ret    
  402245:	b8 00 00 00 00       	mov    $0x0,%eax
  40224a:	e8 11 fd ff ff       	call   401f60 <check_fail>

000000000040224f <bushandler>:
  40224f:	48 83 ec 08          	sub    $0x8,%rsp
  402253:	83 3d fe 52 00 00 00 	cmpl   $0x0,0x52fe(%rip)        # 407558 <is_checker>
  40225a:	74 14                	je     402270 <bushandler+0x21>
  40225c:	bf 66 49 40 00       	mov    $0x404966,%edi
  402261:	e8 1a ee ff ff       	call   401080 <puts@plt>
  402266:	b8 00 00 00 00       	mov    $0x0,%eax
  40226b:	e8 f0 fc ff ff       	call   401f60 <check_fail>
  402270:	bf a8 4a 40 00       	mov    $0x404aa8,%edi
  402275:	e8 06 ee ff ff       	call   401080 <puts@plt>
  40227a:	bf 70 49 40 00       	mov    $0x404970,%edi
  40227f:	e8 fc ed ff ff       	call   401080 <puts@plt>
  402284:	be 00 00 00 00       	mov    $0x0,%esi
  402289:	bf 00 00 00 00       	mov    $0x0,%edi
  40228e:	e8 4e fd ff ff       	call   401fe1 <notify_server>
  402293:	bf 01 00 00 00       	mov    $0x1,%edi
  402298:	e8 73 ef ff ff       	call   401210 <exit@plt>

000000000040229d <seghandler>:
  40229d:	48 83 ec 08          	sub    $0x8,%rsp
  4022a1:	83 3d b0 52 00 00 00 	cmpl   $0x0,0x52b0(%rip)        # 407558 <is_checker>
  4022a8:	74 14                	je     4022be <seghandler+0x21>
  4022aa:	bf 86 49 40 00       	mov    $0x404986,%edi
  4022af:	e8 cc ed ff ff       	call   401080 <puts@plt>
  4022b4:	b8 00 00 00 00       	mov    $0x0,%eax
  4022b9:	e8 a2 fc ff ff       	call   401f60 <check_fail>
  4022be:	bf c8 4a 40 00       	mov    $0x404ac8,%edi
  4022c3:	e8 b8 ed ff ff       	call   401080 <puts@plt>
  4022c8:	bf 70 49 40 00       	mov    $0x404970,%edi
  4022cd:	e8 ae ed ff ff       	call   401080 <puts@plt>
  4022d2:	be 00 00 00 00       	mov    $0x0,%esi
  4022d7:	bf 00 00 00 00       	mov    $0x0,%edi
  4022dc:	e8 00 fd ff ff       	call   401fe1 <notify_server>
  4022e1:	bf 01 00 00 00       	mov    $0x1,%edi
  4022e6:	e8 25 ef ff ff       	call   401210 <exit@plt>

00000000004022eb <illegalhandler>:
  4022eb:	48 83 ec 08          	sub    $0x8,%rsp
  4022ef:	83 3d 62 52 00 00 00 	cmpl   $0x0,0x5262(%rip)        # 407558 <is_checker>
  4022f6:	74 14                	je     40230c <illegalhandler+0x21>
  4022f8:	bf 99 49 40 00       	mov    $0x404999,%edi
  4022fd:	e8 7e ed ff ff       	call   401080 <puts@plt>
  402302:	b8 00 00 00 00       	mov    $0x0,%eax
  402307:	e8 54 fc ff ff       	call   401f60 <check_fail>
  40230c:	bf f0 4a 40 00       	mov    $0x404af0,%edi
  402311:	e8 6a ed ff ff       	call   401080 <puts@plt>
  402316:	bf 70 49 40 00       	mov    $0x404970,%edi
  40231b:	e8 60 ed ff ff       	call   401080 <puts@plt>
  402320:	be 00 00 00 00       	mov    $0x0,%esi
  402325:	bf 00 00 00 00       	mov    $0x0,%edi
  40232a:	e8 b2 fc ff ff       	call   401fe1 <notify_server>
  40232f:	bf 01 00 00 00       	mov    $0x1,%edi
  402334:	e8 d7 ee ff ff       	call   401210 <exit@plt>

0000000000402339 <sigalrmhandler>:
  402339:	48 83 ec 08          	sub    $0x8,%rsp
  40233d:	83 3d 14 52 00 00 00 	cmpl   $0x0,0x5214(%rip)        # 407558 <is_checker>
  402344:	74 14                	je     40235a <sigalrmhandler+0x21>
  402346:	bf ad 49 40 00       	mov    $0x4049ad,%edi
  40234b:	e8 30 ed ff ff       	call   401080 <puts@plt>
  402350:	b8 00 00 00 00       	mov    $0x0,%eax
  402355:	e8 06 fc ff ff       	call   401f60 <check_fail>
  40235a:	be 05 00 00 00       	mov    $0x5,%esi
  40235f:	bf 20 4b 40 00       	mov    $0x404b20,%edi
  402364:	b8 00 00 00 00       	mov    $0x0,%eax
  402369:	e8 52 ed ff ff       	call   4010c0 <printf@plt>
  40236e:	be 00 00 00 00       	mov    $0x0,%esi
  402373:	bf 00 00 00 00       	mov    $0x0,%edi
  402378:	e8 64 fc ff ff       	call   401fe1 <notify_server>
  40237d:	bf 01 00 00 00       	mov    $0x1,%edi
  402382:	e8 89 ee ff ff       	call   401210 <exit@plt>

0000000000402387 <launch>:
  402387:	55                   	push   %rbp
  402388:	48 89 e5             	mov    %rsp,%rbp
  40238b:	48 89 fa             	mov    %rdi,%rdx
  40238e:	48 8d 47 17          	lea    0x17(%rdi),%rax
  402392:	48 83 e0 f0          	and    $0xfffffffffffffff0,%rax
  402396:	48 29 c4             	sub    %rax,%rsp
  402399:	48 8d 7c 24 0f       	lea    0xf(%rsp),%rdi
  40239e:	48 83 e7 f0          	and    $0xfffffffffffffff0,%rdi
  4023a2:	be f4 00 00 00       	mov    $0xf4,%esi
  4023a7:	e8 24 ed ff ff       	call   4010d0 <memset@plt>
  4023ac:	48 8b 05 0d 51 00 00 	mov    0x510d(%rip),%rax        # 4074c0 <stdin@@GLIBC_2.2.5>
  4023b3:	48 39 05 86 51 00 00 	cmp    %rax,0x5186(%rip)        # 407540 <infile>
  4023ba:	74 29                	je     4023e5 <launch+0x5e>
  4023bc:	c7 05 86 51 00 00 00 	movl   $0x0,0x5186(%rip)        # 40754c <vlevel>
  4023c3:	00 00 00 
  4023c6:	b8 00 00 00 00       	mov    $0x0,%eax
  4023cb:	e8 e1 f9 ff ff       	call   401db1 <test>
  4023d0:	83 3d 81 51 00 00 00 	cmpl   $0x0,0x5181(%rip)        # 407558 <is_checker>
  4023d7:	75 1d                	jne    4023f6 <launch+0x6f>
  4023d9:	bf cd 49 40 00       	mov    $0x4049cd,%edi
  4023de:	e8 9d ec ff ff       	call   401080 <puts@plt>
  4023e3:	c9                   	leave  
  4023e4:	c3                   	ret    
  4023e5:	bf b5 49 40 00       	mov    $0x4049b5,%edi
  4023ea:	b8 00 00 00 00       	mov    $0x0,%eax
  4023ef:	e8 cc ec ff ff       	call   4010c0 <printf@plt>
  4023f4:	eb c6                	jmp    4023bc <launch+0x35>
  4023f6:	bf c2 49 40 00       	mov    $0x4049c2,%edi
  4023fb:	e8 80 ec ff ff       	call   401080 <puts@plt>
  402400:	b8 00 00 00 00       	mov    $0x0,%eax
  402405:	e8 56 fb ff ff       	call   401f60 <check_fail>

000000000040240a <stable_launch>:
  40240a:	53                   	push   %rbx
  40240b:	48 89 3d 1e 51 00 00 	mov    %rdi,0x511e(%rip)        # 407530 <global_offset>
  402412:	41 b9 00 00 00 00    	mov    $0x0,%r9d
  402418:	41 b8 00 00 00 00    	mov    $0x0,%r8d
  40241e:	b9 32 01 00 00       	mov    $0x132,%ecx
  402423:	ba 07 00 00 00       	mov    $0x7,%edx
  402428:	be 00 00 10 00       	mov    $0x100000,%esi
  40242d:	bf 00 60 58 55       	mov    $0x55586000,%edi
  402432:	e8 79 ec ff ff       	call   4010b0 <mmap@plt>
  402437:	48 89 c3             	mov    %rax,%rbx
  40243a:	48 3d 00 60 58 55    	cmp    $0x55586000,%rax
  402440:	75 43                	jne    402485 <stable_launch+0x7b>
  402442:	48 8d 90 f8 ff 0f 00 	lea    0xffff8(%rax),%rdx
  402449:	48 89 15 d8 50 00 00 	mov    %rdx,0x50d8(%rip)        # 407528 <stack_top>
  402450:	48 89 e0             	mov    %rsp,%rax
  402453:	48 89 d4             	mov    %rdx,%rsp
  402456:	48 89 c2             	mov    %rax,%rdx
  402459:	48 89 15 c0 50 00 00 	mov    %rdx,0x50c0(%rip)        # 407520 <global_save_stack>
  402460:	48 8b 3d c9 50 00 00 	mov    0x50c9(%rip),%rdi        # 407530 <global_offset>
  402467:	e8 1b ff ff ff       	call   402387 <launch>
  40246c:	48 8b 05 ad 50 00 00 	mov    0x50ad(%rip),%rax        # 407520 <global_save_stack>
  402473:	48 89 c4             	mov    %rax,%rsp
  402476:	be 00 00 10 00       	mov    $0x100000,%esi
  40247b:	48 89 df             	mov    %rbx,%rdi
  40247e:	e8 1d ed ff ff       	call   4011a0 <munmap@plt>
  402483:	5b                   	pop    %rbx
  402484:	c3                   	ret    
  402485:	be 00 00 10 00       	mov    $0x100000,%esi
  40248a:	48 89 c7             	mov    %rax,%rdi
  40248d:	e8 0e ed ff ff       	call   4011a0 <munmap@plt>
  402492:	ba 00 60 58 55       	mov    $0x55586000,%edx
  402497:	be 58 4b 40 00       	mov    $0x404b58,%esi
  40249c:	48 8b 3d 5d 50 00 00 	mov    0x505d(%rip),%rdi        # 407500 <stderr@@GLIBC_2.2.5>
  4024a3:	b8 00 00 00 00       	mov    $0x0,%eax
  4024a8:	e8 93 ec ff ff       	call   401140 <fprintf@plt>
  4024ad:	bf 01 00 00 00       	mov    $0x1,%edi
  4024b2:	e8 59 ed ff ff       	call   401210 <exit@plt>

00000000004024b7 <rio_readinitb>:
  4024b7:	89 37                	mov    %esi,(%rdi)
  4024b9:	c7 47 04 00 00 00 00 	movl   $0x0,0x4(%rdi)
  4024c0:	48 8d 47 10          	lea    0x10(%rdi),%rax
  4024c4:	48 89 47 08          	mov    %rax,0x8(%rdi)
  4024c8:	c3                   	ret    

00000000004024c9 <sigalrm_handler>:
  4024c9:	48 83 ec 08          	sub    $0x8,%rsp
  4024cd:	ba 00 00 00 00       	mov    $0x0,%edx
  4024d2:	be 90 4b 40 00       	mov    $0x404b90,%esi
  4024d7:	48 8b 3d 22 50 00 00 	mov    0x5022(%rip),%rdi        # 407500 <stderr@@GLIBC_2.2.5>
  4024de:	b8 00 00 00 00       	mov    $0x0,%eax
  4024e3:	e8 58 ec ff ff       	call   401140 <fprintf@plt>
  4024e8:	bf 01 00 00 00       	mov    $0x1,%edi
  4024ed:	e8 1e ed ff ff       	call   401210 <exit@plt>

00000000004024f2 <urlencode>:
  4024f2:	41 54                	push   %r12
  4024f4:	55                   	push   %rbp
  4024f5:	53                   	push   %rbx
  4024f6:	48 83 ec 10          	sub    $0x10,%rsp
  4024fa:	48 89 fb             	mov    %rdi,%rbx
  4024fd:	48 89 f5             	mov    %rsi,%rbp
  402500:	e8 9b eb ff ff       	call   4010a0 <strlen@plt>
  402505:	eb 0e                	jmp    402515 <urlencode+0x23>
  402507:	88 55 00             	mov    %dl,0x0(%rbp)
  40250a:	48 8d 6d 01          	lea    0x1(%rbp),%rbp
  40250e:	48 83 c3 01          	add    $0x1,%rbx
  402512:	44 89 e0             	mov    %r12d,%eax
  402515:	44 8d 60 ff          	lea    -0x1(%rax),%r12d
  402519:	85 c0                	test   %eax,%eax
  40251b:	0f 84 93 00 00 00    	je     4025b4 <urlencode+0xc2>
  402521:	0f b6 13             	movzbl (%rbx),%edx
  402524:	80 fa 2a             	cmp    $0x2a,%dl
  402527:	0f 94 c0             	sete   %al
  40252a:	80 fa 2d             	cmp    $0x2d,%dl
  40252d:	0f 94 c1             	sete   %cl
  402530:	08 c8                	or     %cl,%al
  402532:	75 d3                	jne    402507 <urlencode+0x15>
  402534:	80 fa 2e             	cmp    $0x2e,%dl
  402537:	74 ce                	je     402507 <urlencode+0x15>
  402539:	80 fa 5f             	cmp    $0x5f,%dl
  40253c:	74 c9                	je     402507 <urlencode+0x15>
  40253e:	8d 42 d0             	lea    -0x30(%rdx),%eax
  402541:	3c 09                	cmp    $0x9,%al
  402543:	76 c2                	jbe    402507 <urlencode+0x15>
  402545:	8d 42 bf             	lea    -0x41(%rdx),%eax
  402548:	3c 19                	cmp    $0x19,%al
  40254a:	76 bb                	jbe    402507 <urlencode+0x15>
  40254c:	8d 42 9f             	lea    -0x61(%rdx),%eax
  40254f:	3c 19                	cmp    $0x19,%al
  402551:	76 b4                	jbe    402507 <urlencode+0x15>
  402553:	80 fa 20             	cmp    $0x20,%dl
  402556:	74 4a                	je     4025a2 <urlencode+0xb0>
  402558:	8d 42 e0             	lea    -0x20(%rdx),%eax
  40255b:	3c 5f                	cmp    $0x5f,%al
  40255d:	0f 96 c0             	setbe  %al
  402560:	80 fa 09             	cmp    $0x9,%dl
  402563:	0f 94 c1             	sete   %cl
  402566:	08 c8                	or     %cl,%al
  402568:	74 45                	je     4025af <urlencode+0xbd>
  40256a:	0f b6 d2             	movzbl %dl,%edx
  40256d:	be 25 4c 40 00       	mov    $0x404c25,%esi
  402572:	48 8d 7c 24 08       	lea    0x8(%rsp),%rdi
  402577:	b8 00 00 00 00       	mov    $0x0,%eax
  40257c:	e8 7f ec ff ff       	call   401200 <sprintf@plt>
  402581:	0f b6 44 24 08       	movzbl 0x8(%rsp),%eax
  402586:	88 45 00             	mov    %al,0x0(%rbp)
  402589:	0f b6 44 24 09       	movzbl 0x9(%rsp),%eax
  40258e:	88 45 01             	mov    %al,0x1(%rbp)
  402591:	0f b6 44 24 0a       	movzbl 0xa(%rsp),%eax
  402596:	88 45 02             	mov    %al,0x2(%rbp)
  402599:	48 8d 6d 03          	lea    0x3(%rbp),%rbp
  40259d:	e9 6c ff ff ff       	jmp    40250e <urlencode+0x1c>
  4025a2:	c6 45 00 2b          	movb   $0x2b,0x0(%rbp)
  4025a6:	48 8d 6d 01          	lea    0x1(%rbp),%rbp
  4025aa:	e9 5f ff ff ff       	jmp    40250e <urlencode+0x1c>
  4025af:	b8 ff ff ff ff       	mov    $0xffffffff,%eax
  4025b4:	48 83 c4 10          	add    $0x10,%rsp
  4025b8:	5b                   	pop    %rbx
  4025b9:	5d                   	pop    %rbp
  4025ba:	41 5c                	pop    %r12
  4025bc:	c3                   	ret    

00000000004025bd <rio_writen>:
  4025bd:	41 55                	push   %r13
  4025bf:	41 54                	push   %r12
  4025c1:	55                   	push   %rbp
  4025c2:	53                   	push   %rbx
  4025c3:	48 83 ec 08          	sub    $0x8,%rsp
  4025c7:	41 89 fc             	mov    %edi,%r12d
  4025ca:	48 89 f5             	mov    %rsi,%rbp
  4025cd:	49 89 d5             	mov    %rdx,%r13
  4025d0:	48 89 d3             	mov    %rdx,%rbx
  4025d3:	eb 06                	jmp    4025db <rio_writen+0x1e>
  4025d5:	48 29 c3             	sub    %rax,%rbx
  4025d8:	48 01 c5             	add    %rax,%rbp
  4025db:	48 85 db             	test   %rbx,%rbx
  4025de:	74 24                	je     402604 <rio_writen+0x47>
  4025e0:	48 89 da             	mov    %rbx,%rdx
  4025e3:	48 89 ee             	mov    %rbp,%rsi
  4025e6:	44 89 e7             	mov    %r12d,%edi
  4025e9:	e8 a2 ea ff ff       	call   401090 <write@plt>
  4025ee:	48 85 c0             	test   %rax,%rax
  4025f1:	7f e2                	jg     4025d5 <rio_writen+0x18>
  4025f3:	e8 48 ea ff ff       	call   401040 <__errno_location@plt>
  4025f8:	83 38 04             	cmpl   $0x4,(%rax)
  4025fb:	75 15                	jne    402612 <rio_writen+0x55>
  4025fd:	b8 00 00 00 00       	mov    $0x0,%eax
  402602:	eb d1                	jmp    4025d5 <rio_writen+0x18>
  402604:	4c 89 e8             	mov    %r13,%rax
  402607:	48 83 c4 08          	add    $0x8,%rsp
  40260b:	5b                   	pop    %rbx
  40260c:	5d                   	pop    %rbp
  40260d:	41 5c                	pop    %r12
  40260f:	41 5d                	pop    %r13
  402611:	c3                   	ret    
  402612:	48 c7 c0 ff ff ff ff 	mov    $0xffffffffffffffff,%rax
  402619:	eb ec                	jmp    402607 <rio_writen+0x4a>

000000000040261b <rio_read>:
  40261b:	41 55                	push   %r13
  40261d:	41 54                	push   %r12
  40261f:	55                   	push   %rbp
  402620:	53                   	push   %rbx
  402621:	48 83 ec 08          	sub    $0x8,%rsp
  402625:	48 89 fb             	mov    %rdi,%rbx
  402628:	49 89 f5             	mov    %rsi,%r13
  40262b:	49 89 d4             	mov    %rdx,%r12
  40262e:	eb 0a                	jmp    40263a <rio_read+0x1f>
  402630:	e8 0b ea ff ff       	call   401040 <__errno_location@plt>
  402635:	83 38 04             	cmpl   $0x4,(%rax)
  402638:	75 5f                	jne    402699 <rio_read+0x7e>
  40263a:	8b 6b 04             	mov    0x4(%rbx),%ebp
  40263d:	85 ed                	test   %ebp,%ebp
  40263f:	7f 22                	jg     402663 <rio_read+0x48>
  402641:	48 8d 6b 10          	lea    0x10(%rbx),%rbp
  402645:	8b 3b                	mov    (%rbx),%edi
  402647:	ba 00 20 00 00       	mov    $0x2000,%edx
  40264c:	48 89 ee             	mov    %rbp,%rsi
  40264f:	e8 ac ea ff ff       	call   401100 <read@plt>
  402654:	89 43 04             	mov    %eax,0x4(%rbx)
  402657:	85 c0                	test   %eax,%eax
  402659:	78 d5                	js     402630 <rio_read+0x15>
  40265b:	74 45                	je     4026a2 <rio_read+0x87>
  40265d:	48 89 6b 08          	mov    %rbp,0x8(%rbx)
  402661:	eb d7                	jmp    40263a <rio_read+0x1f>
  402663:	89 e8                	mov    %ebp,%eax
  402665:	4c 39 e0             	cmp    %r12,%rax
  402668:	72 03                	jb     40266d <rio_read+0x52>
  40266a:	44 89 e5             	mov    %r12d,%ebp
  40266d:	4c 63 e5             	movslq %ebp,%r12
  402670:	48 8b 73 08          	mov    0x8(%rbx),%rsi
  402674:	4c 89 e2             	mov    %r12,%rdx
  402677:	4c 89 ef             	mov    %r13,%rdi
  40267a:	e8 e1 ea ff ff       	call   401160 <memcpy@plt>
  40267f:	4c 01 63 08          	add    %r12,0x8(%rbx)
  402683:	8b 43 04             	mov    0x4(%rbx),%eax
  402686:	29 e8                	sub    %ebp,%eax
  402688:	89 43 04             	mov    %eax,0x4(%rbx)
  40268b:	4c 89 e0             	mov    %r12,%rax
  40268e:	48 83 c4 08          	add    $0x8,%rsp
  402692:	5b                   	pop    %rbx
  402693:	5d                   	pop    %rbp
  402694:	41 5c                	pop    %r12
  402696:	41 5d                	pop    %r13
  402698:	c3                   	ret    
  402699:	48 c7 c0 ff ff ff ff 	mov    $0xffffffffffffffff,%rax
  4026a0:	eb ec                	jmp    40268e <rio_read+0x73>
  4026a2:	b8 00 00 00 00       	mov    $0x0,%eax
  4026a7:	eb e5                	jmp    40268e <rio_read+0x73>

00000000004026a9 <rio_readlineb>:
  4026a9:	41 55                	push   %r13
  4026ab:	41 54                	push   %r12
  4026ad:	55                   	push   %rbp
  4026ae:	53                   	push   %rbx
  4026af:	48 83 ec 18          	sub    $0x18,%rsp
  4026b3:	49 89 fd             	mov    %rdi,%r13
  4026b6:	48 89 f5             	mov    %rsi,%rbp
  4026b9:	49 89 d4             	mov    %rdx,%r12
  4026bc:	bb 01 00 00 00       	mov    $0x1,%ebx
  4026c1:	eb 18                	jmp    4026db <rio_readlineb+0x32>
  4026c3:	85 c0                	test   %eax,%eax
  4026c5:	75 55                	jne    40271c <rio_readlineb+0x73>
  4026c7:	48 83 fb 01          	cmp    $0x1,%rbx
  4026cb:	75 3d                	jne    40270a <rio_readlineb+0x61>
  4026cd:	b8 00 00 00 00       	mov    $0x0,%eax
  4026d2:	eb 3d                	jmp    402711 <rio_readlineb+0x68>
  4026d4:	48 83 c3 01          	add    $0x1,%rbx
  4026d8:	48 89 d5             	mov    %rdx,%rbp
  4026db:	4c 39 e3             	cmp    %r12,%rbx
  4026de:	73 2a                	jae    40270a <rio_readlineb+0x61>
  4026e0:	ba 01 00 00 00       	mov    $0x1,%edx
  4026e5:	48 8d 74 24 0f       	lea    0xf(%rsp),%rsi
  4026ea:	4c 89 ef             	mov    %r13,%rdi
  4026ed:	e8 29 ff ff ff       	call   40261b <rio_read>
  4026f2:	83 f8 01             	cmp    $0x1,%eax
  4026f5:	75 cc                	jne    4026c3 <rio_readlineb+0x1a>
  4026f7:	48 8d 55 01          	lea    0x1(%rbp),%rdx
  4026fb:	0f b6 44 24 0f       	movzbl 0xf(%rsp),%eax
  402700:	88 45 00             	mov    %al,0x0(%rbp)
  402703:	3c 0a                	cmp    $0xa,%al
  402705:	75 cd                	jne    4026d4 <rio_readlineb+0x2b>
  402707:	48 89 d5             	mov    %rdx,%rbp
  40270a:	c6 45 00 00          	movb   $0x0,0x0(%rbp)
  40270e:	48 89 d8             	mov    %rbx,%rax
  402711:	48 83 c4 18          	add    $0x18,%rsp
  402715:	5b                   	pop    %rbx
  402716:	5d                   	pop    %rbp
  402717:	41 5c                	pop    %r12
  402719:	41 5d                	pop    %r13
  40271b:	c3                   	ret    
  40271c:	48 c7 c0 ff ff ff ff 	mov    $0xffffffffffffffff,%rax
  402723:	eb ec                	jmp    402711 <rio_readlineb+0x68>

0000000000402725 <submitr>:
  402725:	41 57                	push   %r15
  402727:	41 56                	push   %r14
  402729:	41 55                	push   %r13
  40272b:	41 54                	push   %r12
  40272d:	55                   	push   %rbp
  40272e:	53                   	push   %rbx
  40272f:	48 81 ec 58 c0 00 00 	sub    $0xc058,%rsp
  402736:	49 89 fc             	mov    %rdi,%r12
  402739:	89 f5                	mov    %esi,%ebp
  40273b:	48 89 54 24 08       	mov    %rdx,0x8(%rsp)
  402740:	48 89 4c 24 10       	mov    %rcx,0x10(%rsp)
  402745:	4c 89 44 24 18       	mov    %r8,0x18(%rsp)
  40274a:	4d 89 cd             	mov    %r9,%r13
  40274d:	4c 8b bc 24 90 c0 00 	mov    0xc090(%rsp),%r15
  402754:	00 
  402755:	c7 84 24 2c 20 00 00 	movl   $0x0,0x202c(%rsp)
  40275c:	00 00 00 00 
  402760:	ba 00 00 00 00       	mov    $0x0,%edx
  402765:	be 01 00 00 00       	mov    $0x1,%esi
  40276a:	bf 02 00 00 00       	mov    $0x2,%edi
  40276f:	e8 cc ea ff ff       	call   401240 <socket@plt>
  402774:	85 c0                	test   %eax,%eax
  402776:	0f 88 53 02 00 00    	js     4029cf <submitr+0x2aa>
  40277c:	89 c3                	mov    %eax,%ebx
  40277e:	4c 89 e7             	mov    %r12,%rdi
  402781:	e8 aa e9 ff ff       	call   401130 <gethostbyname@plt>
  402786:	48 85 c0             	test   %rax,%rax
  402789:	0f 84 8c 02 00 00    	je     402a1b <submitr+0x2f6>
  40278f:	66 0f ef c0          	pxor   %xmm0,%xmm0
  402793:	0f 29 84 24 40 c0 00 	movaps %xmm0,0xc040(%rsp)
  40279a:	00 
  40279b:	66 c7 84 24 40 c0 00 	movw   $0x2,0xc040(%rsp)
  4027a2:	00 02 00 
  4027a5:	48 8b 48 18          	mov    0x18(%rax),%rcx
  4027a9:	48 63 50 14          	movslq 0x14(%rax),%rdx
  4027ad:	48 8b 31             	mov    (%rcx),%rsi
  4027b0:	48 8d bc 24 44 c0 00 	lea    0xc044(%rsp),%rdi
  4027b7:	00 
  4027b8:	e8 f3 e9 ff ff       	call   4011b0 <memmove@plt>
  4027bd:	66 c1 c5 08          	rol    $0x8,%bp
  4027c1:	66 89 ac 24 42 c0 00 	mov    %bp,0xc042(%rsp)
  4027c8:	00 
  4027c9:	ba 10 00 00 00       	mov    $0x10,%edx
  4027ce:	48 8d b4 24 40 c0 00 	lea    0xc040(%rsp),%rsi
  4027d5:	00 
  4027d6:	89 df                	mov    %ebx,%edi
  4027d8:	e8 43 ea ff ff       	call   401220 <connect@plt>
  4027dd:	85 c0                	test   %eax,%eax
  4027df:	0f 88 9a 02 00 00    	js     402a7f <submitr+0x35a>
  4027e5:	4c 89 ef             	mov    %r13,%rdi
  4027e8:	e8 b3 e8 ff ff       	call   4010a0 <strlen@plt>
  4027ed:	49 89 c6             	mov    %rax,%r14
  4027f0:	48 8b 7c 24 08       	mov    0x8(%rsp),%rdi
  4027f5:	e8 a6 e8 ff ff       	call   4010a0 <strlen@plt>
  4027fa:	48 89 c5             	mov    %rax,%rbp
  4027fd:	48 8b 7c 24 10       	mov    0x10(%rsp),%rdi
  402802:	e8 99 e8 ff ff       	call   4010a0 <strlen@plt>
  402807:	48 01 c5             	add    %rax,%rbp
  40280a:	48 8b 7c 24 18       	mov    0x18(%rsp),%rdi
  40280f:	e8 8c e8 ff ff       	call   4010a0 <strlen@plt>
  402814:	48 01 c5             	add    %rax,%rbp
  402817:	4b 8d 04 76          	lea    (%r14,%r14,2),%rax
  40281b:	48 8d 84 05 80 00 00 	lea    0x80(%rbp,%rax,1),%rax
  402822:	00 
  402823:	48 3d 00 20 00 00    	cmp    $0x2000,%rax
  402829:	0f 87 a6 02 00 00    	ja     402ad5 <submitr+0x3b0>
  40282f:	48 8d b4 24 30 40 00 	lea    0x4030(%rsp),%rsi
  402836:	00 
  402837:	b9 00 04 00 00       	mov    $0x400,%ecx
  40283c:	b8 00 00 00 00       	mov    $0x0,%eax
  402841:	48 89 f7             	mov    %rsi,%rdi
  402844:	f3 48 ab             	rep stos %rax,%es:(%rdi)
  402847:	4c 89 ef             	mov    %r13,%rdi
  40284a:	e8 a3 fc ff ff       	call   4024f2 <urlencode>
  40284f:	85 c0                	test   %eax,%eax
  402851:	0f 88 f0 02 00 00    	js     402b47 <submitr+0x422>
  402857:	4d 89 e1             	mov    %r12,%r9
  40285a:	4c 8d 84 24 30 40 00 	lea    0x4030(%rsp),%r8
  402861:	00 
  402862:	48 8b 4c 24 08       	mov    0x8(%rsp),%rcx
  402867:	48 8b 54 24 10       	mov    0x10(%rsp),%rdx
  40286c:	be b8 4b 40 00       	mov    $0x404bb8,%esi
  402871:	48 8d bc 24 30 60 00 	lea    0x6030(%rsp),%rdi
  402878:	00 
  402879:	b8 00 00 00 00       	mov    $0x0,%eax
  40287e:	e8 7d e9 ff ff       	call   401200 <sprintf@plt>
  402883:	48 8d bc 24 30 60 00 	lea    0x6030(%rsp),%rdi
  40288a:	00 
  40288b:	e8 10 e8 ff ff       	call   4010a0 <strlen@plt>
  402890:	48 89 c2             	mov    %rax,%rdx
  402893:	48 8d b4 24 30 60 00 	lea    0x6030(%rsp),%rsi
  40289a:	00 
  40289b:	89 df                	mov    %ebx,%edi
  40289d:	e8 1b fd ff ff       	call   4025bd <rio_writen>
  4028a2:	48 85 c0             	test   %rax,%rax
  4028a5:	0f 88 24 03 00 00    	js     402bcf <submitr+0x4aa>
  4028ab:	89 de                	mov    %ebx,%esi
  4028ad:	48 8d bc 24 30 a0 00 	lea    0xa030(%rsp),%rdi
  4028b4:	00 
  4028b5:	e8 fd fb ff ff       	call   4024b7 <rio_readinitb>
  4028ba:	ba 00 20 00 00       	mov    $0x2000,%edx
  4028bf:	48 8d b4 24 30 60 00 	lea    0x6030(%rsp),%rsi
  4028c6:	00 
  4028c7:	48 8d bc 24 30 a0 00 	lea    0xa030(%rsp),%rdi
  4028ce:	00 
  4028cf:	e8 d5 fd ff ff       	call   4026a9 <rio_readlineb>
  4028d4:	48 85 c0             	test   %rax,%rax
  4028d7:	0f 8e 5e 03 00 00    	jle    402c3b <submitr+0x516>
  4028dd:	4c 8d 44 24 20       	lea    0x20(%rsp),%r8
  4028e2:	48 8d 8c 24 2c 20 00 	lea    0x202c(%rsp),%rcx
  4028e9:	00 
  4028ea:	48 8d 94 24 30 20 00 	lea    0x2030(%rsp),%rdx
  4028f1:	00 
  4028f2:	be 2c 4c 40 00       	mov    $0x404c2c,%esi
  4028f7:	48 8d bc 24 30 60 00 	lea    0x6030(%rsp),%rdi
  4028fe:	00 
  4028ff:	b8 00 00 00 00       	mov    $0x0,%eax
  402904:	e8 87 e8 ff ff       	call   401190 <__isoc99_sscanf@plt>
  402909:	be 43 4c 40 00       	mov    $0x404c43,%esi
  40290e:	48 8d bc 24 30 60 00 	lea    0x6030(%rsp),%rdi
  402915:	00 
  402916:	e8 f5 e7 ff ff       	call   401110 <strcmp@plt>
  40291b:	85 c0                	test   %eax,%eax
  40291d:	0f 84 98 03 00 00    	je     402cbb <submitr+0x596>
  402923:	ba 00 20 00 00       	mov    $0x2000,%edx
  402928:	48 8d b4 24 30 60 00 	lea    0x6030(%rsp),%rsi
  40292f:	00 
  402930:	48 8d bc 24 30 a0 00 	lea    0xa030(%rsp),%rdi
  402937:	00 
  402938:	e8 6c fd ff ff       	call   4026a9 <rio_readlineb>
  40293d:	48 85 c0             	test   %rax,%rax
  402940:	7f c7                	jg     402909 <submitr+0x1e4>
  402942:	48 b8 45 72 72 6f 72 	movabs $0x43203a726f727245,%rax
  402949:	3a 20 43 
  40294c:	48 ba 6c 69 65 6e 74 	movabs $0x6e7520746e65696c,%rdx
  402953:	20 75 6e 
  402956:	49 89 07             	mov    %rax,(%r15)
  402959:	49 89 57 08          	mov    %rdx,0x8(%r15)
  40295d:	48 b8 61 62 6c 65 20 	movabs $0x206f7420656c6261,%rax
  402964:	74 6f 20 
  402967:	48 ba 72 65 61 64 20 	movabs $0x6165682064616572,%rdx
  40296e:	68 65 61 
  402971:	49 89 47 10          	mov    %rax,0x10(%r15)
  402975:	49 89 57 18          	mov    %rdx,0x18(%r15)
  402979:	48 b8 64 65 72 73 20 	movabs $0x6f72662073726564,%rax
  402980:	66 72 6f 
  402983:	48 ba 6d 20 74 68 65 	movabs $0x657220656874206d,%rdx
  40298a:	20 72 65 
  40298d:	49 89 47 20          	mov    %rax,0x20(%r15)
  402991:	49 89 57 28          	mov    %rdx,0x28(%r15)
  402995:	48 b8 65 20 72 65 73 	movabs $0x746c757365722065,%rax
  40299c:	75 6c 74 
  40299f:	48 ba 20 73 65 72 76 	movabs $0x72657672657320,%rdx
  4029a6:	65 72 00 
  4029a9:	49 89 47 2c          	mov    %rax,0x2c(%r15)
  4029ad:	49 89 57 34          	mov    %rdx,0x34(%r15)
  4029b1:	89 df                	mov    %ebx,%edi
  4029b3:	e8 38 e7 ff ff       	call   4010f0 <close@plt>
  4029b8:	b8 ff ff ff ff       	mov    $0xffffffff,%eax
  4029bd:	48 81 c4 58 c0 00 00 	add    $0xc058,%rsp
  4029c4:	5b                   	pop    %rbx
  4029c5:	5d                   	pop    %rbp
  4029c6:	41 5c                	pop    %r12
  4029c8:	41 5d                	pop    %r13
  4029ca:	41 5e                	pop    %r14
  4029cc:	41 5f                	pop    %r15
  4029ce:	c3                   	ret    
  4029cf:	48 b8 45 72 72 6f 72 	movabs $0x43203a726f727245,%rax
  4029d6:	3a 20 43 
  4029d9:	48 ba 6c 69 65 6e 74 	movabs $0x6e7520746e65696c,%rdx
  4029e0:	20 75 6e 
  4029e3:	49 89 07             	mov    %rax,(%r15)
  4029e6:	49 89 57 08          	mov    %rdx,0x8(%r15)
  4029ea:	48 b8 61 62 6c 65 20 	movabs $0x206f7420656c6261,%rax
  4029f1:	74 6f 20 
  4029f4:	48 ba 63 72 65 61 74 	movabs $0x7320657461657263,%rdx
  4029fb:	65 20 73 
  4029fe:	49 89 47 10          	mov    %rax,0x10(%r15)
  402a02:	49 89 57 18          	mov    %rdx,0x18(%r15)
  402a06:	48 b8 20 73 6f 63 6b 	movabs $0x74656b636f7320,%rax
  402a0d:	65 74 00 
  402a10:	49 89 47 1e          	mov    %rax,0x1e(%r15)
  402a14:	b8 ff ff ff ff       	mov    $0xffffffff,%eax
  402a19:	eb a2                	jmp    4029bd <submitr+0x298>
  402a1b:	48 b8 45 72 72 6f 72 	movabs $0x44203a726f727245,%rax
  402a22:	3a 20 44 
  402a25:	48 ba 4e 53 20 69 73 	movabs $0x6e7520736920534e,%rdx
  402a2c:	20 75 6e 
  402a2f:	49 89 07             	mov    %rax,(%r15)
  402a32:	49 89 57 08          	mov    %rdx,0x8(%r15)
  402a36:	48 b8 61 62 6c 65 20 	movabs $0x206f7420656c6261,%rax
  402a3d:	74 6f 20 
  402a40:	48 ba 72 65 73 6f 6c 	movabs $0x2065766c6f736572,%rdx
  402a47:	76 65 20 
  402a4a:	49 89 47 10          	mov    %rax,0x10(%r15)
  402a4e:	49 89 57 18          	mov    %rdx,0x18(%r15)
  402a52:	48 b8 20 73 65 72 76 	movabs $0x2072657672657320,%rax
  402a59:	65 72 20 
  402a5c:	48 ba 61 64 64 72 65 	movabs $0x73736572646461,%rdx
  402a63:	73 73 00 
  402a66:	49 89 47 1f          	mov    %rax,0x1f(%r15)
  402a6a:	49 89 57 27          	mov    %rdx,0x27(%r15)
  402a6e:	89 df                	mov    %ebx,%edi
  402a70:	e8 7b e6 ff ff       	call   4010f0 <close@plt>
  402a75:	b8 ff ff ff ff       	mov    $0xffffffff,%eax
  402a7a:	e9 3e ff ff ff       	jmp    4029bd <submitr+0x298>
  402a7f:	48 b8 45 72 72 6f 72 	movabs $0x55203a726f727245,%rax
  402a86:	3a 20 55 
  402a89:	48 ba 6e 61 62 6c 65 	movabs $0x6f7420656c62616e,%rdx
  402a90:	20 74 6f 
  402a93:	49 89 07             	mov    %rax,(%r15)
  402a96:	49 89 57 08          	mov    %rdx,0x8(%r15)
  402a9a:	48 b8 20 63 6f 6e 6e 	movabs $0x7463656e6e6f6320,%rax
  402aa1:	65 63 74 
  402aa4:	48 ba 20 74 6f 20 74 	movabs $0x20656874206f7420,%rdx
  402aab:	68 65 20 
  402aae:	49 89 47 10          	mov    %rax,0x10(%r15)
  402ab2:	49 89 57 18          	mov    %rdx,0x18(%r15)
  402ab6:	48 b8 20 73 65 72 76 	movabs $0x72657672657320,%rax
  402abd:	65 72 00 
  402ac0:	49 89 47 1f          	mov    %rax,0x1f(%r15)
  402ac4:	89 df                	mov    %ebx,%edi
  402ac6:	e8 25 e6 ff ff       	call   4010f0 <close@plt>
  402acb:	b8 ff ff ff ff       	mov    $0xffffffff,%eax
  402ad0:	e9 e8 fe ff ff       	jmp    4029bd <submitr+0x298>
  402ad5:	48 b8 45 72 72 6f 72 	movabs $0x52203a726f727245,%rax
  402adc:	3a 20 52 
  402adf:	48 ba 65 73 75 6c 74 	movabs $0x747320746c757365,%rdx
  402ae6:	20 73 74 
  402ae9:	49 89 07             	mov    %rax,(%r15)
  402aec:	49 89 57 08          	mov    %rdx,0x8(%r15)
  402af0:	48 b8 72 69 6e 67 20 	movabs $0x6f6f7420676e6972,%rax
  402af7:	74 6f 6f 
  402afa:	48 ba 20 6c 61 72 67 	movabs $0x202e656772616c20,%rdx
  402b01:	65 2e 20 
  402b04:	49 89 47 10          	mov    %rax,0x10(%r15)
  402b08:	49 89 57 18          	mov    %rdx,0x18(%r15)
  402b0c:	48 b8 49 6e 63 72 65 	movabs $0x6573616572636e49,%rax
  402b13:	61 73 65 
  402b16:	48 ba 20 53 55 42 4d 	movabs $0x5254494d42555320,%rdx
  402b1d:	49 54 52 
  402b20:	49 89 47 20          	mov    %rax,0x20(%r15)
  402b24:	49 89 57 28          	mov    %rdx,0x28(%r15)
  402b28:	48 b8 5f 4d 41 58 42 	movabs $0x46554258414d5f,%rax
  402b2f:	55 46 00 
  402b32:	49 89 47 30          	mov    %rax,0x30(%r15)
  402b36:	89 df                	mov    %ebx,%edi
  402b38:	e8 b3 e5 ff ff       	call   4010f0 <close@plt>
  402b3d:	b8 ff ff ff ff       	mov    $0xffffffff,%eax
  402b42:	e9 76 fe ff ff       	jmp    4029bd <submitr+0x298>
  402b47:	48 b8 45 72 72 6f 72 	movabs $0x52203a726f727245,%rax
  402b4e:	3a 20 52 
  402b51:	48 ba 65 73 75 6c 74 	movabs $0x747320746c757365,%rdx
  402b58:	20 73 74 
  402b5b:	49 89 07             	mov    %rax,(%r15)
  402b5e:	49 89 57 08          	mov    %rdx,0x8(%r15)
  402b62:	48 b8 72 69 6e 67 20 	movabs $0x6e6f6320676e6972,%rax
  402b69:	63 6f 6e 
  402b6c:	48 ba 74 61 69 6e 73 	movabs $0x6e6120736e696174,%rdx
  402b73:	20 61 6e 
  402b76:	49 89 47 10          	mov    %rax,0x10(%r15)
  402b7a:	49 89 57 18          	mov    %rdx,0x18(%r15)
  402b7e:	48 b8 20 69 6c 6c 65 	movabs $0x6c6167656c6c6920,%rax
  402b85:	67 61 6c 
  402b88:	48 ba 20 6f 72 20 75 	movabs $0x72706e7520726f20,%rdx
  402b8f:	6e 70 72 
  402b92:	49 89 47 20          	mov    %rax,0x20(%r15)
  402b96:	49 89 57 28          	mov    %rdx,0x28(%r15)
  402b9a:	48 b8 69 6e 74 61 62 	movabs $0x20656c6261746e69,%rax
  402ba1:	6c 65 20 
  402ba4:	48 ba 63 68 61 72 61 	movabs $0x6574636172616863,%rdx
  402bab:	63 74 65 
  402bae:	49 89 47 30          	mov    %rax,0x30(%r15)
  402bb2:	49 89 57 38          	mov    %rdx,0x38(%r15)
  402bb6:	41 c7 47 3f 65 72 2e 	movl   $0x2e7265,0x3f(%r15)
  402bbd:	00 
  402bbe:	89 df                	mov    %ebx,%edi
  402bc0:	e8 2b e5 ff ff       	call   4010f0 <close@plt>
  402bc5:	b8 ff ff ff ff       	mov    $0xffffffff,%eax
  402bca:	e9 ee fd ff ff       	jmp    4029bd <submitr+0x298>
  402bcf:	48 b8 45 72 72 6f 72 	movabs $0x43203a726f727245,%rax
  402bd6:	3a 20 43 
  402bd9:	48 ba 6c 69 65 6e 74 	movabs $0x6e7520746e65696c,%rdx
  402be0:	20 75 6e 
  402be3:	49 89 07             	mov    %rax,(%r15)
  402be6:	49 89 57 08          	mov    %rdx,0x8(%r15)
  402bea:	48 b8 61 62 6c 65 20 	movabs $0x206f7420656c6261,%rax
  402bf1:	74 6f 20 
  402bf4:	48 ba 77 72 69 74 65 	movabs $0x6f74206574697277,%rdx
  402bfb:	20 74 6f 
  402bfe:	49 89 47 10          	mov    %rax,0x10(%r15)
  402c02:	49 89 57 18          	mov    %rdx,0x18(%r15)
  402c06:	48 b8 20 74 68 65 20 	movabs $0x7365722065687420,%rax
  402c0d:	72 65 73 
  402c10:	48 ba 75 6c 74 20 73 	movabs $0x7672657320746c75,%rdx
  402c17:	65 72 76 
  402c1a:	49 89 47 20          	mov    %rax,0x20(%r15)
  402c1e:	49 89 57 28          	mov    %rdx,0x28(%r15)
  402c22:	41 c7 47 2f 76 65 72 	movl   $0x726576,0x2f(%r15)
  402c29:	00 
  402c2a:	89 df                	mov    %ebx,%edi
  402c2c:	e8 bf e4 ff ff       	call   4010f0 <close@plt>
  402c31:	b8 ff ff ff ff       	mov    $0xffffffff,%eax
  402c36:	e9 82 fd ff ff       	jmp    4029bd <submitr+0x298>
  402c3b:	48 b8 45 72 72 6f 72 	movabs $0x43203a726f727245,%rax
  402c42:	3a 20 43 
  402c45:	48 ba 6c 69 65 6e 74 	movabs $0x6e7520746e65696c,%rdx
  402c4c:	20 75 6e 
  402c4f:	49 89 07             	mov    %rax,(%r15)
  402c52:	49 89 57 08          	mov    %rdx,0x8(%r15)
  402c56:	48 b8 61 62 6c 65 20 	movabs $0x206f7420656c6261,%rax
  402c5d:	74 6f 20 
  402c60:	48 ba 72 65 61 64 20 	movabs $0x7269662064616572,%rdx
  402c67:	66 69 72 
  402c6a:	49 89 47 10          	mov    %rax,0x10(%r15)
  402c6e:	49 89 57 18          	mov    %rdx,0x18(%r15)
  402c72:	48 b8 73 74 20 68 65 	movabs $0x6564616568207473,%rax
  402c79:	61 64 65 
  402c7c:	48 ba 72 20 66 72 6f 	movabs $0x72206d6f72662072,%rdx
  402c83:	6d 20 72 
  402c86:	49 89 47 20          	mov    %rax,0x20(%r15)
  402c8a:	49 89 57 28          	mov    %rdx,0x28(%r15)
  402c8e:	48 b8 6d 20 72 65 73 	movabs $0x746c75736572206d,%rax
  402c95:	75 6c 74 
  402c98:	48 ba 20 73 65 72 76 	movabs $0x72657672657320,%rdx
  402c9f:	65 72 00 
  402ca2:	49 89 47 2d          	mov    %rax,0x2d(%r15)
  402ca6:	49 89 57 35          	mov    %rdx,0x35(%r15)
  402caa:	89 df                	mov    %ebx,%edi
  402cac:	e8 3f e4 ff ff       	call   4010f0 <close@plt>
  402cb1:	b8 ff ff ff ff       	mov    $0xffffffff,%eax
  402cb6:	e9 02 fd ff ff       	jmp    4029bd <submitr+0x298>
  402cbb:	ba 00 20 00 00       	mov    $0x2000,%edx
  402cc0:	48 8d b4 24 30 60 00 	lea    0x6030(%rsp),%rsi
  402cc7:	00 
  402cc8:	48 8d bc 24 30 a0 00 	lea    0xa030(%rsp),%rdi
  402ccf:	00 
  402cd0:	e8 d4 f9 ff ff       	call   4026a9 <rio_readlineb>
  402cd5:	48 85 c0             	test   %rax,%rax
  402cd8:	7e 73                	jle    402d4d <submitr+0x628>
  402cda:	8b 94 24 2c 20 00 00 	mov    0x202c(%rsp),%edx
  402ce1:	81 fa c8 00 00 00    	cmp    $0xc8,%edx
  402ce7:	0f 85 e0 00 00 00    	jne    402dcd <submitr+0x6a8>
  402ced:	48 8d b4 24 30 60 00 	lea    0x6030(%rsp),%rsi
  402cf4:	00 
  402cf5:	4c 89 ff             	mov    %r15,%rdi
  402cf8:	e8 73 e3 ff ff       	call   401070 <strcpy@plt>
  402cfd:	89 df                	mov    %ebx,%edi
  402cff:	e8 ec e3 ff ff       	call   4010f0 <close@plt>
  402d04:	be 3d 4c 40 00       	mov    $0x404c3d,%esi
  402d09:	4c 89 ff             	mov    %r15,%rdi
  402d0c:	e8 ff e3 ff ff       	call   401110 <strcmp@plt>
  402d11:	85 c0                	test   %eax,%eax
  402d13:	0f 84 a4 fc ff ff    	je     4029bd <submitr+0x298>
  402d19:	be 41 4c 40 00       	mov    $0x404c41,%esi
  402d1e:	4c 89 ff             	mov    %r15,%rdi
  402d21:	e8 ea e3 ff ff       	call   401110 <strcmp@plt>
  402d26:	85 c0                	test   %eax,%eax
  402d28:	0f 84 8f fc ff ff    	je     4029bd <submitr+0x298>
  402d2e:	be 46 4c 40 00       	mov    $0x404c46,%esi
  402d33:	4c 89 ff             	mov    %r15,%rdi
  402d36:	e8 d5 e3 ff ff       	call   401110 <strcmp@plt>
  402d3b:	85 c0                	test   %eax,%eax
  402d3d:	0f 84 7a fc ff ff    	je     4029bd <submitr+0x298>
  402d43:	b8 ff ff ff ff       	mov    $0xffffffff,%eax
  402d48:	e9 70 fc ff ff       	jmp    4029bd <submitr+0x298>
  402d4d:	48 b8 45 72 72 6f 72 	movabs $0x43203a726f727245,%rax
  402d54:	3a 20 43 
  402d57:	48 ba 6c 69 65 6e 74 	movabs $0x6e7520746e65696c,%rdx
  402d5e:	20 75 6e 
  402d61:	49 89 07             	mov    %rax,(%r15)
  402d64:	49 89 57 08          	mov    %rdx,0x8(%r15)
  402d68:	48 b8 61 62 6c 65 20 	movabs $0x206f7420656c6261,%rax
  402d6f:	74 6f 20 
  402d72:	48 ba 72 65 61 64 20 	movabs $0x6174732064616572,%rdx
  402d79:	73 74 61 
  402d7c:	49 89 47 10          	mov    %rax,0x10(%r15)
  402d80:	49 89 57 18          	mov    %rdx,0x18(%r15)
  402d84:	48 b8 74 75 73 20 6d 	movabs $0x7373656d20737574,%rax
  402d8b:	65 73 73 
  402d8e:	48 ba 61 67 65 20 66 	movabs $0x6d6f726620656761,%rdx
  402d95:	72 6f 6d 
  402d98:	49 89 47 20          	mov    %rax,0x20(%r15)
  402d9c:	49 89 57 28          	mov    %rdx,0x28(%r15)
  402da0:	48 b8 6d 20 72 65 73 	movabs $0x746c75736572206d,%rax
  402da7:	75 6c 74 
  402daa:	48 ba 20 73 65 72 76 	movabs $0x72657672657320,%rdx
  402db1:	65 72 00 
  402db4:	49 89 47 2f          	mov    %rax,0x2f(%r15)
  402db8:	49 89 57 37          	mov    %rdx,0x37(%r15)
  402dbc:	89 df                	mov    %ebx,%edi
  402dbe:	e8 2d e3 ff ff       	call   4010f0 <close@plt>
  402dc3:	b8 ff ff ff ff       	mov    $0xffffffff,%eax
  402dc8:	e9 f0 fb ff ff       	jmp    4029bd <submitr+0x298>
  402dcd:	48 8d 4c 24 20       	lea    0x20(%rsp),%rcx
  402dd2:	be f8 4b 40 00       	mov    $0x404bf8,%esi
  402dd7:	4c 89 ff             	mov    %r15,%rdi
  402dda:	b8 00 00 00 00       	mov    $0x0,%eax
  402ddf:	e8 1c e4 ff ff       	call   401200 <sprintf@plt>
  402de4:	89 df                	mov    %ebx,%edi
  402de6:	e8 05 e3 ff ff       	call   4010f0 <close@plt>
  402deb:	b8 ff ff ff ff       	mov    $0xffffffff,%eax
  402df0:	e9 c8 fb ff ff       	jmp    4029bd <submitr+0x298>

0000000000402df5 <init_timeout>:
  402df5:	85 ff                	test   %edi,%edi
  402df7:	74 24                	je     402e1d <init_timeout+0x28>
  402df9:	53                   	push   %rbx
  402dfa:	89 fb                	mov    %edi,%ebx
  402dfc:	78 18                	js     402e16 <init_timeout+0x21>
  402dfe:	be c9 24 40 00       	mov    $0x4024c9,%esi
  402e03:	bf 0e 00 00 00       	mov    $0xe,%edi
  402e08:	e8 13 e3 ff ff       	call   401120 <signal@plt>
  402e0d:	89 df                	mov    %ebx,%edi
  402e0f:	e8 cc e2 ff ff       	call   4010e0 <alarm@plt>
  402e14:	5b                   	pop    %rbx
  402e15:	c3                   	ret    
  402e16:	bb 00 00 00 00       	mov    $0x0,%ebx
  402e1b:	eb e1                	jmp    402dfe <init_timeout+0x9>
  402e1d:	c3                   	ret    

0000000000402e1e <init_driver>:
  402e1e:	55                   	push   %rbp
  402e1f:	53                   	push   %rbx
  402e20:	48 83 ec 18          	sub    $0x18,%rsp
  402e24:	48 89 fd             	mov    %rdi,%rbp
  402e27:	be 01 00 00 00       	mov    $0x1,%esi
  402e2c:	bf 0d 00 00 00       	mov    $0xd,%edi
  402e31:	e8 ea e2 ff ff       	call   401120 <signal@plt>
  402e36:	be 01 00 00 00       	mov    $0x1,%esi
  402e3b:	bf 1d 00 00 00       	mov    $0x1d,%edi
  402e40:	e8 db e2 ff ff       	call   401120 <signal@plt>
  402e45:	be 01 00 00 00       	mov    $0x1,%esi
  402e4a:	bf 1d 00 00 00       	mov    $0x1d,%edi
  402e4f:	e8 cc e2 ff ff       	call   401120 <signal@plt>
  402e54:	ba 00 00 00 00       	mov    $0x0,%edx
  402e59:	be 01 00 00 00       	mov    $0x1,%esi
  402e5e:	bf 02 00 00 00       	mov    $0x2,%edi
  402e63:	e8 d8 e3 ff ff       	call   401240 <socket@plt>
  402e68:	85 c0                	test   %eax,%eax
  402e6a:	78 73                	js     402edf <init_driver+0xc1>
  402e6c:	89 c3                	mov    %eax,%ebx
  402e6e:	bf 0f 43 40 00       	mov    $0x40430f,%edi
  402e73:	e8 b8 e2 ff ff       	call   401130 <gethostbyname@plt>
  402e78:	48 85 c0             	test   %rax,%rax
  402e7b:	0f 84 ab 00 00 00    	je     402f2c <init_driver+0x10e>
  402e81:	66 0f ef c0          	pxor   %xmm0,%xmm0
  402e85:	0f 29 04 24          	movaps %xmm0,(%rsp)
  402e89:	66 c7 04 24 02 00    	movw   $0x2,(%rsp)
  402e8f:	48 8b 48 18          	mov    0x18(%rax),%rcx
  402e93:	48 63 50 14          	movslq 0x14(%rax),%rdx
  402e97:	48 8b 31             	mov    (%rcx),%rsi
  402e9a:	48 8d 7c 24 04       	lea    0x4(%rsp),%rdi
  402e9f:	e8 0c e3 ff ff       	call   4011b0 <memmove@plt>
  402ea4:	66 c7 44 24 02 66 bf 	movw   $0xbf66,0x2(%rsp)
  402eab:	ba 10 00 00 00       	mov    $0x10,%edx
  402eb0:	48 89 e6             	mov    %rsp,%rsi
  402eb3:	89 df                	mov    %ebx,%edi
  402eb5:	e8 66 e3 ff ff       	call   401220 <connect@plt>
  402eba:	85 c0                	test   %eax,%eax
  402ebc:	0f 88 cf 00 00 00    	js     402f91 <init_driver+0x173>
  402ec2:	89 df                	mov    %ebx,%edi
  402ec4:	e8 27 e2 ff ff       	call   4010f0 <close@plt>
  402ec9:	66 c7 45 00 4f 4b    	movw   $0x4b4f,0x0(%rbp)
  402ecf:	c6 45 02 00          	movb   $0x0,0x2(%rbp)
  402ed3:	b8 00 00 00 00       	mov    $0x0,%eax
  402ed8:	48 83 c4 18          	add    $0x18,%rsp
  402edc:	5b                   	pop    %rbx
  402edd:	5d                   	pop    %rbp
  402ede:	c3                   	ret    
  402edf:	48 b8 45 72 72 6f 72 	movabs $0x43203a726f727245,%rax
  402ee6:	3a 20 43 
  402ee9:	48 ba 6c 69 65 6e 74 	movabs $0x6e7520746e65696c,%rdx
  402ef0:	20 75 6e 
  402ef3:	48 89 45 00          	mov    %rax,0x0(%rbp)
  402ef7:	48 89 55 08          	mov    %rdx,0x8(%rbp)
  402efb:	48 b8 61 62 6c 65 20 	movabs $0x206f7420656c6261,%rax
  402f02:	74 6f 20 
  402f05:	48 ba 63 72 65 61 74 	movabs $0x7320657461657263,%rdx
  402f0c:	65 20 73 
  402f0f:	48 89 45 10          	mov    %rax,0x10(%rbp)
  402f13:	48 89 55 18          	mov    %rdx,0x18(%rbp)
  402f17:	48 b8 20 73 6f 63 6b 	movabs $0x74656b636f7320,%rax
  402f1e:	65 74 00 
  402f21:	48 89 45 1e          	mov    %rax,0x1e(%rbp)
  402f25:	b8 ff ff ff ff       	mov    $0xffffffff,%eax
  402f2a:	eb ac                	jmp    402ed8 <init_driver+0xba>
  402f2c:	48 b8 45 72 72 6f 72 	movabs $0x44203a726f727245,%rax
  402f33:	3a 20 44 
  402f36:	48 ba 4e 53 20 69 73 	movabs $0x6e7520736920534e,%rdx
  402f3d:	20 75 6e 
  402f40:	48 89 45 00          	mov    %rax,0x0(%rbp)
  402f44:	48 89 55 08          	mov    %rdx,0x8(%rbp)
  402f48:	48 b8 61 62 6c 65 20 	movabs $0x206f7420656c6261,%rax
  402f4f:	74 6f 20 
  402f52:	48 ba 72 65 73 6f 6c 	movabs $0x2065766c6f736572,%rdx
  402f59:	76 65 20 
  402f5c:	48 89 45 10          	mov    %rax,0x10(%rbp)
  402f60:	48 89 55 18          	mov    %rdx,0x18(%rbp)
  402f64:	48 b8 20 73 65 72 76 	movabs $0x2072657672657320,%rax
  402f6b:	65 72 20 
  402f6e:	48 ba 61 64 64 72 65 	movabs $0x73736572646461,%rdx
  402f75:	73 73 00 
  402f78:	48 89 45 1f          	mov    %rax,0x1f(%rbp)
  402f7c:	48 89 55 27          	mov    %rdx,0x27(%rbp)
  402f80:	89 df                	mov    %ebx,%edi
  402f82:	e8 69 e1 ff ff       	call   4010f0 <close@plt>
  402f87:	b8 ff ff ff ff       	mov    $0xffffffff,%eax
  402f8c:	e9 47 ff ff ff       	jmp    402ed8 <init_driver+0xba>
  402f91:	48 b8 66 61 73 74 78 	movabs $0x2e31307874736166,%rax
  402f98:	30 31 2e 
  402f9b:	48 ba 64 69 76 6d 73 	movabs $0x69752e736d766964,%rdx
  402fa2:	2e 75 69 
  402fa5:	48 89 45 00          	mov    %rax,0x0(%rbp)
  402fa9:	48 89 55 08          	mov    %rdx,0x8(%rbp)
  402fad:	48 b8 6f 77 61 2e 65 	movabs $0x7564652e61776f,%rax
  402fb4:	64 75 00 
  402fb7:	48 89 45 10          	mov    %rax,0x10(%rbp)
  402fbb:	48 b8 45 72 72 6f 72 	movabs $0x55203a726f727245,%rax
  402fc2:	3a 20 55 
  402fc5:	48 ba 6e 61 62 6c 65 	movabs $0x6f7420656c62616e,%rdx
  402fcc:	20 74 6f 
  402fcf:	48 89 45 00          	mov    %rax,0x0(%rbp)
  402fd3:	48 89 55 08          	mov    %rdx,0x8(%rbp)
  402fd7:	48 b8 20 63 6f 6e 6e 	movabs $0x7463656e6e6f6320,%rax
  402fde:	65 63 74 
  402fe1:	48 ba 20 74 6f 20 73 	movabs $0x76726573206f7420,%rdx
  402fe8:	65 72 76 
  402feb:	48 89 45 10          	mov    %rax,0x10(%rbp)
  402fef:	48 89 55 18          	mov    %rdx,0x18(%rbp)
  402ff3:	c7 45 1f 76 65 72 00 	movl   $0x726576,0x1f(%rbp)
  402ffa:	89 df                	mov    %ebx,%edi
  402ffc:	e8 ef e0 ff ff       	call   4010f0 <close@plt>
  403001:	b8 ff ff ff ff       	mov    $0xffffffff,%eax
  403006:	e9 cd fe ff ff       	jmp    402ed8 <init_driver+0xba>

000000000040300b <driver_post>:
  40300b:	53                   	push   %rbx
  40300c:	4c 89 cb             	mov    %r9,%rbx
  40300f:	45 85 c0             	test   %r8d,%r8d
  403012:	75 18                	jne    40302c <driver_post+0x21>
  403014:	48 85 ff             	test   %rdi,%rdi
  403017:	74 05                	je     40301e <driver_post+0x13>
  403019:	80 3f 00             	cmpb   $0x0,(%rdi)
  40301c:	75 30                	jne    40304e <driver_post+0x43>
  40301e:	66 c7 03 4f 4b       	movw   $0x4b4f,(%rbx)
  403023:	c6 43 02 00          	movb   $0x0,0x2(%rbx)
  403027:	44 89 c0             	mov    %r8d,%eax
  40302a:	5b                   	pop    %rbx
  40302b:	c3                   	ret    
  40302c:	48 89 ce             	mov    %rcx,%rsi
  40302f:	bf 49 4c 40 00       	mov    $0x404c49,%edi
  403034:	b8 00 00 00 00       	mov    $0x0,%eax
  403039:	e8 82 e0 ff ff       	call   4010c0 <printf@plt>
  40303e:	66 c7 03 4f 4b       	movw   $0x4b4f,(%rbx)
  403043:	c6 43 02 00          	movb   $0x0,0x2(%rbx)
  403047:	b8 00 00 00 00       	mov    $0x0,%eax
  40304c:	eb dc                	jmp    40302a <driver_post+0x1f>
  40304e:	48 83 ec 08          	sub    $0x8,%rsp
  403052:	41 51                	push   %r9
  403054:	49 89 c9             	mov    %rcx,%r9
  403057:	49 89 d0             	mov    %rdx,%r8
  40305a:	48 89 f9             	mov    %rdi,%rcx
  40305d:	48 89 f2             	mov    %rsi,%rdx
  403060:	be bf 66 00 00       	mov    $0x66bf,%esi
  403065:	bf 0f 43 40 00       	mov    $0x40430f,%edi
  40306a:	e8 b6 f6 ff ff       	call   402725 <submitr>
  40306f:	48 83 c4 10          	add    $0x10,%rsp
  403073:	eb b5                	jmp    40302a <driver_post+0x1f>

0000000000403075 <check>:
  403075:	89 f8                	mov    %edi,%eax
  403077:	c1 e8 1c             	shr    $0x1c,%eax
  40307a:	74 1d                	je     403099 <check+0x24>
  40307c:	b9 00 00 00 00       	mov    $0x0,%ecx
  403081:	83 f9 1f             	cmp    $0x1f,%ecx
  403084:	7f 0d                	jg     403093 <check+0x1e>
  403086:	89 f8                	mov    %edi,%eax
  403088:	d3 e8                	shr    %cl,%eax
  40308a:	3c 0a                	cmp    $0xa,%al
  40308c:	74 11                	je     40309f <check+0x2a>
  40308e:	83 c1 08             	add    $0x8,%ecx
  403091:	eb ee                	jmp    403081 <check+0xc>
  403093:	b8 01 00 00 00       	mov    $0x1,%eax
  403098:	c3                   	ret    
  403099:	b8 00 00 00 00       	mov    $0x0,%eax
  40309e:	c3                   	ret    
  40309f:	b8 00 00 00 00       	mov    $0x0,%eax
  4030a4:	c3                   	ret    

00000000004030a5 <gencookie>:
  4030a5:	53                   	push   %rbx
  4030a6:	83 c7 01             	add    $0x1,%edi
  4030a9:	e8 a2 df ff ff       	call   401050 <srandom@plt>
  4030ae:	e8 cd e0 ff ff       	call   401180 <random@plt>
  4030b3:	89 c3                	mov    %eax,%ebx
  4030b5:	89 c7                	mov    %eax,%edi
  4030b7:	e8 b9 ff ff ff       	call   403075 <check>
  4030bc:	85 c0                	test   %eax,%eax
  4030be:	74 ee                	je     4030ae <gencookie+0x9>
  4030c0:	89 d8                	mov    %ebx,%eax
  4030c2:	5b                   	pop    %rbx
  4030c3:	c3                   	ret    

Disassembly of section .fini:

00000000004030c4 <_fini>:
  4030c4:	f3 0f 1e fa          	endbr64 
  4030c8:	48 83 ec 08          	sub    $0x8,%rsp
  4030cc:	48 83 c4 08          	add    $0x8,%rsp
  4030d0:	c3                   	ret    
